

Microchip Technology PIC LITE Macro Assembler V1.35 build -356382666 
                                                                                               Sun Jan 17 17:20:55 2016

Microchip Technology Omniscient Code Generator v1.35 (Free mode) build 201507080246
     1                           	processor	16F1455
     2                           	opt	pw 120
     3                           	opt	lm
     4                           	psect	idataBANK4,global,class=CODE,delta=2
     5                           	psect	stringtext,global,class=STRCODE,delta=2
     6                           	psect	cinit,global,class=CODE,merge=1,delta=2
     7                           	psect	bssBANK1,global,class=BANK1,space=1,delta=1
     8                           	psect	bssBANK3,global,class=BANK3,space=1,delta=1
     9                           	psect	bssBANK4,global,class=BANK4,space=1,delta=1
    10                           	psect	dataBANK4,global,class=BANK4,space=1,delta=1
    11                           	psect	bssBANK5,global,class=BANK5,space=1,delta=1
    12                           	psect	bssBANK6,global,class=BANK6,space=1,delta=1
    13                           	psect	clrtext,global,class=CODE,delta=2
    14                           	psect	inittext,global,class=CODE,delta=2
    15                           	psect	cstackBANK4,global,class=BANK4,space=1,delta=1
    16                           	psect	cstackBANK3,global,class=BANK3,space=1,delta=1
    17                           	psect	cstackBANK2,global,class=BANK2,space=1,delta=1
    18                           	psect	cstackBANK1,global,class=BANK1,space=1,delta=1
    19                           	psect	cstackCOMMON,global,class=COMMON,space=1,delta=1
    20                           	psect	cstackBANK0h,global,class=BANK0,space=1,delta=1
    21                           	psect	maintext,global,class=CODE,merge=1,split=1,delta=2
    22                           	psect	text1,local,class=CODE,merge=1,delta=2
    23                           	psect	text2,local,class=CODE,merge=1,delta=2
    24                           	psect	text3,local,class=CODE,merge=1,delta=2
    25                           	psect	text4,local,class=CODE,merge=1,delta=2
    26                           	psect	text5,local,class=CODE,merge=1,delta=2
    27                           	psect	text6,local,class=CODE,merge=1,delta=2
    28                           	psect	text7,local,class=CODE,merge=1,delta=2
    29                           	psect	text8,local,class=CODE,merge=1,delta=2
    30                           	psect	text9,local,class=CODE,merge=1,delta=2
    31                           	psect	text10,local,class=CODE,merge=1,delta=2
    32                           	psect	text11,local,class=CODE,merge=1,delta=2
    33                           	psect	intentry,global,class=CODE,delta=2
    34                           	psect	text13,local,class=CODE,merge=1,delta=2
    35                           	psect	text14,local,class=CODE,merge=1,delta=2
    36                           	psect	text15,local,class=CODE,merge=1,delta=2
    37                           	psect	text16,local,class=CODE,merge=1,delta=2
    38                           	psect	text17,local,class=CODE,merge=1,delta=2
    39                           	psect	text18,local,class=CODE,merge=1,delta=2
    40                           	psect	text19,local,class=CODE,merge=1,delta=2
    41                           	psect	text20,local,class=CODE,merge=1,delta=2
    42                           	psect	text21,local,class=CODE,merge=1,delta=2
    43                           	psect	text22,local,class=CODE,merge=1,delta=2
    44                           	psect	text23,local,class=CODE,merge=1,delta=2
    45                           	psect	swtext1,local,class=CONST,delta=2
    46                           	psect	text24,local,class=CODE,merge=1,delta=2
    47                           	psect	text25,local,class=CODE,merge=1,delta=2
    48                           	psect	text26,local,class=CODE,merge=1,delta=2
    49                           	psect	text27,local,class=CODE,merge=1,delta=2
    50                           	psect	text28,local,class=CODE,merge=1,delta=2
    51                           	psect	text29,local,class=CODE,merge=1,delta=2
    52                           	psect	text30,local,class=CODE,merge=1,delta=2
    53                           	psect	text31,local,class=CODE,merge=1,delta=2
    54                           	psect	text32,local,class=CODE,merge=1,delta=2
    55                           	psect	text33,local,class=CODE,merge=1,delta=2
    56                           	psect	text34,local,class=CODE,merge=1,delta=2
    57                           	psect	text35,local,class=CODE,merge=1,delta=2
    58                           	psect	text36,local,class=CODE,merge=1,delta=2
    59                           	psect	text37,local,class=CODE,merge=1,delta=2
    60                           	psect	text38,local,class=CODE,merge=1,delta=2
    61                           	psect	text39,local,class=CODE,merge=1,delta=2
    62                           	psect	text40,local,class=CODE,merge=1,delta=2
    63                           	psect	text41,local,class=CODE,merge=1,delta=2
    64                           	psect	text42,local,class=CODE,merge=1,delta=2
    65                           	psect	text43,local,class=CODE,merge=1,delta=2
    66                           	psect	text44,local,class=CODE,merge=1,delta=2
    67                           	dabs	1,0x20,48,_BDT
    68                           	dabs	1,0x50,8,_SetupPkt
    69                           	dabs	1,0xA0,64,_cdc_data_tx
    70                           	dabs	1,0x120,64,_cdc_data_rx
    71                           	dabs	1,0x58,8,_CtrlTrfData
    72                           	dabs	1,0x7E,2
    73  0000                     	;# 
    74  0001                     	;# 
    75  0002                     	;# 
    76  0003                     	;# 
    77  0004                     	;# 
    78  0005                     	;# 
    79  0006                     	;# 
    80  0007                     	;# 
    81  0008                     	;# 
    82  0009                     	;# 
    83  000A                     	;# 
    84  000B                     	;# 
    85  000C                     	;# 
    86  000E                     	;# 
    87  0011                     	;# 
    88  0012                     	;# 
    89  0015                     	;# 
    90  0016                     	;# 
    91  0016                     	;# 
    92  0017                     	;# 
    93  0018                     	;# 
    94  0019                     	;# 
    95  001A                     	;# 
    96  001B                     	;# 
    97  001C                     	;# 
    98  008C                     	;# 
    99  008E                     	;# 
   100  0091                     	;# 
   101  0092                     	;# 
   102  0095                     	;# 
   103  0096                     	;# 
   104  0097                     	;# 
   105  0098                     	;# 
   106  0099                     	;# 
   107  009A                     	;# 
   108  009B                     	;# 
   109  009B                     	;# 
   110  009C                     	;# 
   111  009D                     	;# 
   112  009E                     	;# 
   113  009F                     	;# 
   114  010C                     	;# 
   115  010E                     	;# 
   116  0111                     	;# 
   117  0112                     	;# 
   118  0113                     	;# 
   119  0114                     	;# 
   120  0115                     	;# 
   121  0116                     	;# 
   122  0117                     	;# 
   123  0118                     	;# 
   124  0119                     	;# 
   125  011D                     	;# 
   126  018C                     	;# 
   127  018E                     	;# 
   128  0191                     	;# 
   129  0191                     	;# 
   130  0192                     	;# 
   131  0193                     	;# 
   132  0193                     	;# 
   133  0194                     	;# 
   134  0195                     	;# 
   135  0196                     	;# 
   136  0197                     	;# 
   137  0199                     	;# 
   138  019A                     	;# 
   139  019B                     	;# 
   140  019B                     	;# 
   141  019C                     	;# 
   142  019D                     	;# 
   143  019E                     	;# 
   144  019F                     	;# 
   145  020C                     	;# 
   146  0211                     	;# 
   147  0211                     	;# 
   148  0212                     	;# 
   149  0212                     	;# 
   150  0213                     	;# 
   151  0213                     	;# 
   152  0214                     	;# 
   153  0214                     	;# 
   154  0215                     	;# 
   155  0215                     	;# 
   156  0215                     	;# 
   157  0216                     	;# 
   158  0216                     	;# 
   159  0217                     	;# 
   160  0217                     	;# 
   161  0391                     	;# 
   162  0392                     	;# 
   163  0393                     	;# 
   164  039A                     	;# 
   165  039B                     	;# 
   166  0611                     	;# 
   167  0612                     	;# 
   168  0613                     	;# 
   169  0613                     	;# 
   170  0614                     	;# 
   171  0615                     	;# 
   172  0616                     	;# 
   173  0616                     	;# 
   174  0691                     	;# 
   175  0692                     	;# 
   176  0693                     	;# 
   177  0694                     	;# 
   178  0695                     	;# 
   179  0E8E                     	;# 
   180  0E8F                     	;# 
   181  0E90                     	;# 
   182  0E91                     	;# 
   183  0E92                     	;# 
   184  0E93                     	;# 
   185  0E94                     	;# 
   186  0E94                     	;# 
   187  0E95                     	;# 
   188  0E96                     	;# 
   189  0E97                     	;# 
   190  0E98                     	;# 
   191  0E99                     	;# 
   192  0E9A                     	;# 
   193  0E9B                     	;# 
   194  0E9C                     	;# 
   195  0E9D                     	;# 
   196  0E9E                     	;# 
   197  0E9F                     	;# 
   198  0FE4                     	;# 
   199  0FE5                     	;# 
   200  0FE6                     	;# 
   201  0FE7                     	;# 
   202  0FE8                     	;# 
   203  0FE9                     	;# 
   204  0FEA                     	;# 
   205  0FEB                     	;# 
   206  0FED                     	;# 
   207  0FEE                     	;# 
   208  0FEF                     	;# 
   209  0000                     	;# 
   210  0001                     	;# 
   211  0002                     	;# 
   212  0003                     	;# 
   213  0004                     	;# 
   214  0005                     	;# 
   215  0006                     	;# 
   216  0007                     	;# 
   217  0008                     	;# 
   218  0009                     	;# 
   219  000A                     	;# 
   220  000B                     	;# 
   221  000C                     	;# 
   222  000E                     	;# 
   223  0011                     	;# 
   224  0012                     	;# 
   225  0015                     	;# 
   226  0016                     	;# 
   227  0016                     	;# 
   228  0017                     	;# 
   229  0018                     	;# 
   230  0019                     	;# 
   231  001A                     	;# 
   232  001B                     	;# 
   233  001C                     	;# 
   234  008C                     	;# 
   235  008E                     	;# 
   236  0091                     	;# 
   237  0092                     	;# 
   238  0095                     	;# 
   239  0096                     	;# 
   240  0097                     	;# 
   241  0098                     	;# 
   242  0099                     	;# 
   243  009A                     	;# 
   244  009B                     	;# 
   245  009B                     	;# 
   246  009C                     	;# 
   247  009D                     	;# 
   248  009E                     	;# 
   249  009F                     	;# 
   250  010C                     	;# 
   251  010E                     	;# 
   252  0111                     	;# 
   253  0112                     	;# 
   254  0113                     	;# 
   255  0114                     	;# 
   256  0115                     	;# 
   257  0116                     	;# 
   258  0117                     	;# 
   259  0118                     	;# 
   260  0119                     	;# 
   261  011D                     	;# 
   262  018C                     	;# 
   263  018E                     	;# 
   264  0191                     	;# 
   265  0191                     	;# 
   266  0192                     	;# 
   267  0193                     	;# 
   268  0193                     	;# 
   269  0194                     	;# 
   270  0195                     	;# 
   271  0196                     	;# 
   272  0197                     	;# 
   273  0199                     	;# 
   274  019A                     	;# 
   275  019B                     	;# 
   276  019B                     	;# 
   277  019C                     	;# 
   278  019D                     	;# 
   279  019E                     	;# 
   280  019F                     	;# 
   281  020C                     	;# 
   282  0211                     	;# 
   283  0211                     	;# 
   284  0212                     	;# 
   285  0212                     	;# 
   286  0213                     	;# 
   287  0213                     	;# 
   288  0214                     	;# 
   289  0214                     	;# 
   290  0215                     	;# 
   291  0215                     	;# 
   292  0215                     	;# 
   293  0216                     	;# 
   294  0216                     	;# 
   295  0217                     	;# 
   296  0217                     	;# 
   297  0391                     	;# 
   298  0392                     	;# 
   299  0393                     	;# 
   300  039A                     	;# 
   301  039B                     	;# 
   302  0611                     	;# 
   303  0612                     	;# 
   304  0613                     	;# 
   305  0613                     	;# 
   306  0614                     	;# 
   307  0615                     	;# 
   308  0616                     	;# 
   309  0616                     	;# 
   310  0691                     	;# 
   311  0692                     	;# 
   312  0693                     	;# 
   313  0694                     	;# 
   314  0695                     	;# 
   315  0E8E                     	;# 
   316  0E8F                     	;# 
   317  0E90                     	;# 
   318  0E91                     	;# 
   319  0E92                     	;# 
   320  0E93                     	;# 
   321  0E94                     	;# 
   322  0E94                     	;# 
   323  0E95                     	;# 
   324  0E96                     	;# 
   325  0E97                     	;# 
   326  0E98                     	;# 
   327  0E99                     	;# 
   328  0E9A                     	;# 
   329  0E9B                     	;# 
   330  0E9C                     	;# 
   331  0E9D                     	;# 
   332  0E9E                     	;# 
   333  0E9F                     	;# 
   334  0FE4                     	;# 
   335  0FE5                     	;# 
   336  0FE6                     	;# 
   337  0FE7                     	;# 
   338  0FE8                     	;# 
   339  0FE9                     	;# 
   340  0FEA                     	;# 
   341  0FEB                     	;# 
   342  0FED                     	;# 
   343  0FEE                     	;# 
   344  0FEF                     	;# 
   345  0000                     	;# 
   346  0001                     	;# 
   347  0002                     	;# 
   348  0003                     	;# 
   349  0004                     	;# 
   350  0005                     	;# 
   351  0006                     	;# 
   352  0007                     	;# 
   353  0008                     	;# 
   354  0009                     	;# 
   355  000A                     	;# 
   356  000B                     	;# 
   357  000C                     	;# 
   358  000E                     	;# 
   359  0011                     	;# 
   360  0012                     	;# 
   361  0015                     	;# 
   362  0016                     	;# 
   363  0016                     	;# 
   364  0017                     	;# 
   365  0018                     	;# 
   366  0019                     	;# 
   367  001A                     	;# 
   368  001B                     	;# 
   369  001C                     	;# 
   370  008C                     	;# 
   371  008E                     	;# 
   372  0091                     	;# 
   373  0092                     	;# 
   374  0095                     	;# 
   375  0096                     	;# 
   376  0097                     	;# 
   377  0098                     	;# 
   378  0099                     	;# 
   379  009A                     	;# 
   380  009B                     	;# 
   381  009B                     	;# 
   382  009C                     	;# 
   383  009D                     	;# 
   384  009E                     	;# 
   385  009F                     	;# 
   386  010C                     	;# 
   387  010E                     	;# 
   388  0111                     	;# 
   389  0112                     	;# 
   390  0113                     	;# 
   391  0114                     	;# 
   392  0115                     	;# 
   393  0116                     	;# 
   394  0117                     	;# 
   395  0118                     	;# 
   396  0119                     	;# 
   397  011D                     	;# 
   398  018C                     	;# 
   399  018E                     	;# 
   400  0191                     	;# 
   401  0191                     	;# 
   402  0192                     	;# 
   403  0193                     	;# 
   404  0193                     	;# 
   405  0194                     	;# 
   406  0195                     	;# 
   407  0196                     	;# 
   408  0197                     	;# 
   409  0199                     	;# 
   410  019A                     	;# 
   411  019B                     	;# 
   412  019B                     	;# 
   413  019C                     	;# 
   414  019D                     	;# 
   415  019E                     	;# 
   416  019F                     	;# 
   417  020C                     	;# 
   418  0211                     	;# 
   419  0211                     	;# 
   420  0212                     	;# 
   421  0212                     	;# 
   422  0213                     	;# 
   423  0213                     	;# 
   424  0214                     	;# 
   425  0214                     	;# 
   426  0215                     	;# 
   427  0215                     	;# 
   428  0215                     	;# 
   429  0216                     	;# 
   430  0216                     	;# 
   431  0217                     	;# 
   432  0217                     	;# 
   433  0391                     	;# 
   434  0392                     	;# 
   435  0393                     	;# 
   436  039A                     	;# 
   437  039B                     	;# 
   438  0611                     	;# 
   439  0612                     	;# 
   440  0613                     	;# 
   441  0613                     	;# 
   442  0614                     	;# 
   443  0615                     	;# 
   444  0616                     	;# 
   445  0616                     	;# 
   446  0691                     	;# 
   447  0692                     	;# 
   448  0693                     	;# 
   449  0694                     	;# 
   450  0695                     	;# 
   451  0E8E                     	;# 
   452  0E8F                     	;# 
   453  0E90                     	;# 
   454  0E91                     	;# 
   455  0E92                     	;# 
   456  0E93                     	;# 
   457  0E94                     	;# 
   458  0E94                     	;# 
   459  0E95                     	;# 
   460  0E96                     	;# 
   461  0E97                     	;# 
   462  0E98                     	;# 
   463  0E99                     	;# 
   464  0E9A                     	;# 
   465  0E9B                     	;# 
   466  0E9C                     	;# 
   467  0E9D                     	;# 
   468  0E9E                     	;# 
   469  0E9F                     	;# 
   470  0FE4                     	;# 
   471  0FE5                     	;# 
   472  0FE6                     	;# 
   473  0FE7                     	;# 
   474  0FE8                     	;# 
   475  0FE9                     	;# 
   476  0FEA                     	;# 
   477  0FEB                     	;# 
   478  0FED                     	;# 
   479  0FEE                     	;# 
   480  0FEF                     	;# 
   481  0000                     	;# 
   482  0001                     	;# 
   483  0002                     	;# 
   484  0003                     	;# 
   485  0004                     	;# 
   486  0005                     	;# 
   487  0006                     	;# 
   488  0007                     	;# 
   489  0008                     	;# 
   490  0009                     	;# 
   491  000A                     	;# 
   492  000B                     	;# 
   493  000C                     	;# 
   494  000E                     	;# 
   495  0011                     	;# 
   496  0012                     	;# 
   497  0015                     	;# 
   498  0016                     	;# 
   499  0016                     	;# 
   500  0017                     	;# 
   501  0018                     	;# 
   502  0019                     	;# 
   503  001A                     	;# 
   504  001B                     	;# 
   505  001C                     	;# 
   506  008C                     	;# 
   507  008E                     	;# 
   508  0091                     	;# 
   509  0092                     	;# 
   510  0095                     	;# 
   511  0096                     	;# 
   512  0097                     	;# 
   513  0098                     	;# 
   514  0099                     	;# 
   515  009A                     	;# 
   516  009B                     	;# 
   517  009B                     	;# 
   518  009C                     	;# 
   519  009D                     	;# 
   520  009E                     	;# 
   521  009F                     	;# 
   522  010C                     	;# 
   523  010E                     	;# 
   524  0111                     	;# 
   525  0112                     	;# 
   526  0113                     	;# 
   527  0114                     	;# 
   528  0115                     	;# 
   529  0116                     	;# 
   530  0117                     	;# 
   531  0118                     	;# 
   532  0119                     	;# 
   533  011D                     	;# 
   534  018C                     	;# 
   535  018E                     	;# 
   536  0191                     	;# 
   537  0191                     	;# 
   538  0192                     	;# 
   539  0193                     	;# 
   540  0193                     	;# 
   541  0194                     	;# 
   542  0195                     	;# 
   543  0196                     	;# 
   544  0197                     	;# 
   545  0199                     	;# 
   546  019A                     	;# 
   547  019B                     	;# 
   548  019B                     	;# 
   549  019C                     	;# 
   550  019D                     	;# 
   551  019E                     	;# 
   552  019F                     	;# 
   553  020C                     	;# 
   554  0211                     	;# 
   555  0211                     	;# 
   556  0212                     	;# 
   557  0212                     	;# 
   558  0213                     	;# 
   559  0213                     	;# 
   560  0214                     	;# 
   561  0214                     	;# 
   562  0215                     	;# 
   563  0215                     	;# 
   564  0215                     	;# 
   565  0216                     	;# 
   566  0216                     	;# 
   567  0217                     	;# 
   568  0217                     	;# 
   569  0391                     	;# 
   570  0392                     	;# 
   571  0393                     	;# 
   572  039A                     	;# 
   573  039B                     	;# 
   574  0611                     	;# 
   575  0612                     	;# 
   576  0613                     	;# 
   577  0613                     	;# 
   578  0614                     	;# 
   579  0615                     	;# 
   580  0616                     	;# 
   581  0616                     	;# 
   582  0691                     	;# 
   583  0692                     	;# 
   584  0693                     	;# 
   585  0694                     	;# 
   586  0695                     	;# 
   587  0E8E                     	;# 
   588  0E8F                     	;# 
   589  0E90                     	;# 
   590  0E91                     	;# 
   591  0E92                     	;# 
   592  0E93                     	;# 
   593  0E94                     	;# 
   594  0E94                     	;# 
   595  0E95                     	;# 
   596  0E96                     	;# 
   597  0E97                     	;# 
   598  0E98                     	;# 
   599  0E99                     	;# 
   600  0E9A                     	;# 
   601  0E9B                     	;# 
   602  0E9C                     	;# 
   603  0E9D                     	;# 
   604  0E9E                     	;# 
   605  0E9F                     	;# 
   606  0FE4                     	;# 
   607  0FE5                     	;# 
   608  0FE6                     	;# 
   609  0FE7                     	;# 
   610  0FE8                     	;# 
   611  0FE9                     	;# 
   612  0FEA                     	;# 
   613  0FEB                     	;# 
   614  0FED                     	;# 
   615  0FEE                     	;# 
   616  0FEF                     	;# 
   617  0000                     	;# 
   618  0001                     	;# 
   619  0002                     	;# 
   620  0003                     	;# 
   621  0004                     	;# 
   622  0005                     	;# 
   623  0006                     	;# 
   624  0007                     	;# 
   625  0008                     	;# 
   626  0009                     	;# 
   627  000A                     	;# 
   628  000B                     	;# 
   629  000C                     	;# 
   630  000E                     	;# 
   631  0011                     	;# 
   632  0012                     	;# 
   633  0015                     	;# 
   634  0016                     	;# 
   635  0016                     	;# 
   636  0017                     	;# 
   637  0018                     	;# 
   638  0019                     	;# 
   639  001A                     	;# 
   640  001B                     	;# 
   641  001C                     	;# 
   642  008C                     	;# 
   643  008E                     	;# 
   644  0091                     	;# 
   645  0092                     	;# 
   646  0095                     	;# 
   647  0096                     	;# 
   648  0097                     	;# 
   649  0098                     	;# 
   650  0099                     	;# 
   651  009A                     	;# 
   652  009B                     	;# 
   653  009B                     	;# 
   654  009C                     	;# 
   655  009D                     	;# 
   656  009E                     	;# 
   657  009F                     	;# 
   658  010C                     	;# 
   659  010E                     	;# 
   660  0111                     	;# 
   661  0112                     	;# 
   662  0113                     	;# 
   663  0114                     	;# 
   664  0115                     	;# 
   665  0116                     	;# 
   666  0117                     	;# 
   667  0118                     	;# 
   668  0119                     	;# 
   669  011D                     	;# 
   670  018C                     	;# 
   671  018E                     	;# 
   672  0191                     	;# 
   673  0191                     	;# 
   674  0192                     	;# 
   675  0193                     	;# 
   676  0193                     	;# 
   677  0194                     	;# 
   678  0195                     	;# 
   679  0196                     	;# 
   680  0197                     	;# 
   681  0199                     	;# 
   682  019A                     	;# 
   683  019B                     	;# 
   684  019B                     	;# 
   685  019C                     	;# 
   686  019D                     	;# 
   687  019E                     	;# 
   688  019F                     	;# 
   689  020C                     	;# 
   690  0211                     	;# 
   691  0211                     	;# 
   692  0212                     	;# 
   693  0212                     	;# 
   694  0213                     	;# 
   695  0213                     	;# 
   696  0214                     	;# 
   697  0214                     	;# 
   698  0215                     	;# 
   699  0215                     	;# 
   700  0215                     	;# 
   701  0216                     	;# 
   702  0216                     	;# 
   703  0217                     	;# 
   704  0217                     	;# 
   705  0391                     	;# 
   706  0392                     	;# 
   707  0393                     	;# 
   708  039A                     	;# 
   709  039B                     	;# 
   710  0611                     	;# 
   711  0612                     	;# 
   712  0613                     	;# 
   713  0613                     	;# 
   714  0614                     	;# 
   715  0615                     	;# 
   716  0616                     	;# 
   717  0616                     	;# 
   718  0691                     	;# 
   719  0692                     	;# 
   720  0693                     	;# 
   721  0694                     	;# 
   722  0695                     	;# 
   723  0E8E                     	;# 
   724  0E8F                     	;# 
   725  0E90                     	;# 
   726  0E91                     	;# 
   727  0E92                     	;# 
   728  0E93                     	;# 
   729  0E94                     	;# 
   730  0E94                     	;# 
   731  0E95                     	;# 
   732  0E96                     	;# 
   733  0E97                     	;# 
   734  0E98                     	;# 
   735  0E99                     	;# 
   736  0E9A                     	;# 
   737  0E9B                     	;# 
   738  0E9C                     	;# 
   739  0E9D                     	;# 
   740  0E9E                     	;# 
   741  0E9F                     	;# 
   742  0FE4                     	;# 
   743  0FE5                     	;# 
   744  0FE6                     	;# 
   745  0FE7                     	;# 
   746  0FE8                     	;# 
   747  0FE9                     	;# 
   748  0FEA                     	;# 
   749  0FEB                     	;# 
   750  0FED                     	;# 
   751  0FEE                     	;# 
   752  0FEF                     	;# 
   753  0000                     	;# 
   754  0001                     	;# 
   755  0002                     	;# 
   756  0003                     	;# 
   757  0004                     	;# 
   758  0005                     	;# 
   759  0006                     	;# 
   760  0007                     	;# 
   761  0008                     	;# 
   762  0009                     	;# 
   763  000A                     	;# 
   764  000B                     	;# 
   765  000C                     	;# 
   766  000E                     	;# 
   767  0011                     	;# 
   768  0012                     	;# 
   769  0015                     	;# 
   770  0016                     	;# 
   771  0016                     	;# 
   772  0017                     	;# 
   773  0018                     	;# 
   774  0019                     	;# 
   775  001A                     	;# 
   776  001B                     	;# 
   777  001C                     	;# 
   778  008C                     	;# 
   779  008E                     	;# 
   780  0091                     	;# 
   781  0092                     	;# 
   782  0095                     	;# 
   783  0096                     	;# 
   784  0097                     	;# 
   785  0098                     	;# 
   786  0099                     	;# 
   787  009A                     	;# 
   788  009B                     	;# 
   789  009B                     	;# 
   790  009C                     	;# 
   791  009D                     	;# 
   792  009E                     	;# 
   793  009F                     	;# 
   794  010C                     	;# 
   795  010E                     	;# 
   796  0111                     	;# 
   797  0112                     	;# 
   798  0113                     	;# 
   799  0114                     	;# 
   800  0115                     	;# 
   801  0116                     	;# 
   802  0117                     	;# 
   803  0118                     	;# 
   804  0119                     	;# 
   805  011D                     	;# 
   806  018C                     	;# 
   807  018E                     	;# 
   808  0191                     	;# 
   809  0191                     	;# 
   810  0192                     	;# 
   811  0193                     	;# 
   812  0193                     	;# 
   813  0194                     	;# 
   814  0195                     	;# 
   815  0196                     	;# 
   816  0197                     	;# 
   817  0199                     	;# 
   818  019A                     	;# 
   819  019B                     	;# 
   820  019B                     	;# 
   821  019C                     	;# 
   822  019D                     	;# 
   823  019E                     	;# 
   824  019F                     	;# 
   825  020C                     	;# 
   826  0211                     	;# 
   827  0211                     	;# 
   828  0212                     	;# 
   829  0212                     	;# 
   830  0213                     	;# 
   831  0213                     	;# 
   832  0214                     	;# 
   833  0214                     	;# 
   834  0215                     	;# 
   835  0215                     	;# 
   836  0215                     	;# 
   837  0216                     	;# 
   838  0216                     	;# 
   839  0217                     	;# 
   840  0217                     	;# 
   841  0391                     	;# 
   842  0392                     	;# 
   843  0393                     	;# 
   844  039A                     	;# 
   845  039B                     	;# 
   846  0611                     	;# 
   847  0612                     	;# 
   848  0613                     	;# 
   849  0613                     	;# 
   850  0614                     	;# 
   851  0615                     	;# 
   852  0616                     	;# 
   853  0616                     	;# 
   854  0691                     	;# 
   855  0692                     	;# 
   856  0693                     	;# 
   857  0694                     	;# 
   858  0695                     	;# 
   859  0E8E                     	;# 
   860  0E8F                     	;# 
   861  0E90                     	;# 
   862  0E91                     	;# 
   863  0E92                     	;# 
   864  0E93                     	;# 
   865  0E94                     	;# 
   866  0E94                     	;# 
   867  0E95                     	;# 
   868  0E96                     	;# 
   869  0E97                     	;# 
   870  0E98                     	;# 
   871  0E99                     	;# 
   872  0E9A                     	;# 
   873  0E9B                     	;# 
   874  0E9C                     	;# 
   875  0E9D                     	;# 
   876  0E9E                     	;# 
   877  0E9F                     	;# 
   878  0FE4                     	;# 
   879  0FE5                     	;# 
   880  0FE6                     	;# 
   881  0FE7                     	;# 
   882  0FE8                     	;# 
   883  0FE9                     	;# 
   884  0FEA                     	;# 
   885  0FEB                     	;# 
   886  0FED                     	;# 
   887  0FEE                     	;# 
   888  0FEF                     	;# 
   889  0000                     	;# 
   890  0001                     	;# 
   891  0002                     	;# 
   892  0003                     	;# 
   893  0004                     	;# 
   894  0005                     	;# 
   895  0006                     	;# 
   896  0007                     	;# 
   897  0008                     	;# 
   898  0009                     	;# 
   899  000A                     	;# 
   900  000B                     	;# 
   901  000C                     	;# 
   902  000E                     	;# 
   903  0011                     	;# 
   904  0012                     	;# 
   905  0015                     	;# 
   906  0016                     	;# 
   907  0016                     	;# 
   908  0017                     	;# 
   909  0018                     	;# 
   910  0019                     	;# 
   911  001A                     	;# 
   912  001B                     	;# 
   913  001C                     	;# 
   914  008C                     	;# 
   915  008E                     	;# 
   916  0091                     	;# 
   917  0092                     	;# 
   918  0095                     	;# 
   919  0096                     	;# 
   920  0097                     	;# 
   921  0098                     	;# 
   922  0099                     	;# 
   923  009A                     	;# 
   924  009B                     	;# 
   925  009B                     	;# 
   926  009C                     	;# 
   927  009D                     	;# 
   928  009E                     	;# 
   929  009F                     	;# 
   930  010C                     	;# 
   931  010E                     	;# 
   932  0111                     	;# 
   933  0112                     	;# 
   934  0113                     	;# 
   935  0114                     	;# 
   936  0115                     	;# 
   937  0116                     	;# 
   938  0117                     	;# 
   939  0118                     	;# 
   940  0119                     	;# 
   941  011D                     	;# 
   942  018C                     	;# 
   943  018E                     	;# 
   944  0191                     	;# 
   945  0191                     	;# 
   946  0192                     	;# 
   947  0193                     	;# 
   948  0193                     	;# 
   949  0194                     	;# 
   950  0195                     	;# 
   951  0196                     	;# 
   952  0197                     	;# 
   953  0199                     	;# 
   954  019A                     	;# 
   955  019B                     	;# 
   956  019B                     	;# 
   957  019C                     	;# 
   958  019D                     	;# 
   959  019E                     	;# 
   960  019F                     	;# 
   961  020C                     	;# 
   962  0211                     	;# 
   963  0211                     	;# 
   964  0212                     	;# 
   965  0212                     	;# 
   966  0213                     	;# 
   967  0213                     	;# 
   968  0214                     	;# 
   969  0214                     	;# 
   970  0215                     	;# 
   971  0215                     	;# 
   972  0215                     	;# 
   973  0216                     	;# 
   974  0216                     	;# 
   975  0217                     	;# 
   976  0217                     	;# 
   977  0391                     	;# 
   978  0392                     	;# 
   979  0393                     	;# 
   980  039A                     	;# 
   981  039B                     	;# 
   982  0611                     	;# 
   983  0612                     	;# 
   984  0613                     	;# 
   985  0613                     	;# 
   986  0614                     	;# 
   987  0615                     	;# 
   988  0616                     	;# 
   989  0616                     	;# 
   990  0691                     	;# 
   991  0692                     	;# 
   992  0693                     	;# 
   993  0694                     	;# 
   994  0695                     	;# 
   995  0E8E                     	;# 
   996  0E8F                     	;# 
   997  0E90                     	;# 
   998  0E91                     	;# 
   999  0E92                     	;# 
  1000  0E93                     	;# 
  1001  0E94                     	;# 
  1002  0E94                     	;# 
  1003  0E95                     	;# 
  1004  0E96                     	;# 
  1005  0E97                     	;# 
  1006  0E98                     	;# 
  1007  0E99                     	;# 
  1008  0E9A                     	;# 
  1009  0E9B                     	;# 
  1010  0E9C                     	;# 
  1011  0E9D                     	;# 
  1012  0E9E                     	;# 
  1013  0E9F                     	;# 
  1014  0FE4                     	;# 
  1015  0FE5                     	;# 
  1016  0FE6                     	;# 
  1017  0FE7                     	;# 
  1018  0FE8                     	;# 
  1019  0FE9                     	;# 
  1020  0FEA                     	;# 
  1021  0FEB                     	;# 
  1022  0FED                     	;# 
  1023  0FEE                     	;# 
  1024  0FEF                     	;# 
  1025  0000                     	;# 
  1026  0001                     	;# 
  1027  0002                     	;# 
  1028  0003                     	;# 
  1029  0004                     	;# 
  1030  0005                     	;# 
  1031  0006                     	;# 
  1032  0007                     	;# 
  1033  0008                     	;# 
  1034  0009                     	;# 
  1035  000A                     	;# 
  1036  000B                     	;# 
  1037  000C                     	;# 
  1038  000E                     	;# 
  1039  0011                     	;# 
  1040  0012                     	;# 
  1041  0015                     	;# 
  1042  0016                     	;# 
  1043  0016                     	;# 
  1044  0017                     	;# 
  1045  0018                     	;# 
  1046  0019                     	;# 
  1047  001A                     	;# 
  1048  001B                     	;# 
  1049  001C                     	;# 
  1050  008C                     	;# 
  1051  008E                     	;# 
  1052  0091                     	;# 
  1053  0092                     	;# 
  1054  0095                     	;# 
  1055  0096                     	;# 
  1056  0097                     	;# 
  1057  0098                     	;# 
  1058  0099                     	;# 
  1059  009A                     	;# 
  1060  009B                     	;# 
  1061  009B                     	;# 
  1062  009C                     	;# 
  1063  009D                     	;# 
  1064  009E                     	;# 
  1065  009F                     	;# 
  1066  010C                     	;# 
  1067  010E                     	;# 
  1068  0111                     	;# 
  1069  0112                     	;# 
  1070  0113                     	;# 
  1071  0114                     	;# 
  1072  0115                     	;# 
  1073  0116                     	;# 
  1074  0117                     	;# 
  1075  0118                     	;# 
  1076  0119                     	;# 
  1077  011D                     	;# 
  1078  018C                     	;# 
  1079  018E                     	;# 
  1080  0191                     	;# 
  1081  0191                     	;# 
  1082  0192                     	;# 
  1083  0193                     	;# 
  1084  0193                     	;# 
  1085  0194                     	;# 
  1086  0195                     	;# 
  1087  0196                     	;# 
  1088  0197                     	;# 
  1089  0199                     	;# 
  1090  019A                     	;# 
  1091  019B                     	;# 
  1092  019B                     	;# 
  1093  019C                     	;# 
  1094  019D                     	;# 
  1095  019E                     	;# 
  1096  019F                     	;# 
  1097  020C                     	;# 
  1098  0211                     	;# 
  1099  0211                     	;# 
  1100  0212                     	;# 
  1101  0212                     	;# 
  1102  0213                     	;# 
  1103  0213                     	;# 
  1104  0214                     	;# 
  1105  0214                     	;# 
  1106  0215                     	;# 
  1107  0215                     	;# 
  1108  0215                     	;# 
  1109  0216                     	;# 
  1110  0216                     	;# 
  1111  0217                     	;# 
  1112  0217                     	;# 
  1113  0391                     	;# 
  1114  0392                     	;# 
  1115  0393                     	;# 
  1116  039A                     	;# 
  1117  039B                     	;# 
  1118  0611                     	;# 
  1119  0612                     	;# 
  1120  0613                     	;# 
  1121  0613                     	;# 
  1122  0614                     	;# 
  1123  0615                     	;# 
  1124  0616                     	;# 
  1125  0616                     	;# 
  1126  0691                     	;# 
  1127  0692                     	;# 
  1128  0693                     	;# 
  1129  0694                     	;# 
  1130  0695                     	;# 
  1131  0E8E                     	;# 
  1132  0E8F                     	;# 
  1133  0E90                     	;# 
  1134  0E91                     	;# 
  1135  0E92                     	;# 
  1136  0E93                     	;# 
  1137  0E94                     	;# 
  1138  0E94                     	;# 
  1139  0E95                     	;# 
  1140  0E96                     	;# 
  1141  0E97                     	;# 
  1142  0E98                     	;# 
  1143  0E99                     	;# 
  1144  0E9A                     	;# 
  1145  0E9B                     	;# 
  1146  0E9C                     	;# 
  1147  0E9D                     	;# 
  1148  0E9E                     	;# 
  1149  0E9F                     	;# 
  1150  0FE4                     	;# 
  1151  0FE5                     	;# 
  1152  0FE6                     	;# 
  1153  0FE7                     	;# 
  1154  0FE8                     	;# 
  1155  0FE9                     	;# 
  1156  0FEA                     	;# 
  1157  0FEB                     	;# 
  1158  0FED                     	;# 
  1159  0FEE                     	;# 
  1160  0FEF                     	;# 
  1161  0000                     	;# 
  1162  0001                     	;# 
  1163  0002                     	;# 
  1164  0003                     	;# 
  1165  0004                     	;# 
  1166  0005                     	;# 
  1167  0006                     	;# 
  1168  0007                     	;# 
  1169  0008                     	;# 
  1170  0009                     	;# 
  1171  000A                     	;# 
  1172  000B                     	;# 
  1173  000C                     	;# 
  1174  000E                     	;# 
  1175  0011                     	;# 
  1176  0012                     	;# 
  1177  0015                     	;# 
  1178  0016                     	;# 
  1179  0016                     	;# 
  1180  0017                     	;# 
  1181  0018                     	;# 
  1182  0019                     	;# 
  1183  001A                     	;# 
  1184  001B                     	;# 
  1185  001C                     	;# 
  1186  008C                     	;# 
  1187  008E                     	;# 
  1188  0091                     	;# 
  1189  0092                     	;# 
  1190  0095                     	;# 
  1191  0096                     	;# 
  1192  0097                     	;# 
  1193  0098                     	;# 
  1194  0099                     	;# 
  1195  009A                     	;# 
  1196  009B                     	;# 
  1197  009B                     	;# 
  1198  009C                     	;# 
  1199  009D                     	;# 
  1200  009E                     	;# 
  1201  009F                     	;# 
  1202  010C                     	;# 
  1203  010E                     	;# 
  1204  0111                     	;# 
  1205  0112                     	;# 
  1206  0113                     	;# 
  1207  0114                     	;# 
  1208  0115                     	;# 
  1209  0116                     	;# 
  1210  0117                     	;# 
  1211  0118                     	;# 
  1212  0119                     	;# 
  1213  011D                     	;# 
  1214  018C                     	;# 
  1215  018E                     	;# 
  1216  0191                     	;# 
  1217  0191                     	;# 
  1218  0192                     	;# 
  1219  0193                     	;# 
  1220  0193                     	;# 
  1221  0194                     	;# 
  1222  0195                     	;# 
  1223  0196                     	;# 
  1224  0197                     	;# 
  1225  0199                     	;# 
  1226  019A                     	;# 
  1227  019B                     	;# 
  1228  019B                     	;# 
  1229  019C                     	;# 
  1230  019D                     	;# 
  1231  019E                     	;# 
  1232  019F                     	;# 
  1233  020C                     	;# 
  1234  0211                     	;# 
  1235  0211                     	;# 
  1236  0212                     	;# 
  1237  0212                     	;# 
  1238  0213                     	;# 
  1239  0213                     	;# 
  1240  0214                     	;# 
  1241  0214                     	;# 
  1242  0215                     	;# 
  1243  0215                     	;# 
  1244  0215                     	;# 
  1245  0216                     	;# 
  1246  0216                     	;# 
  1247  0217                     	;# 
  1248  0217                     	;# 
  1249  0391                     	;# 
  1250  0392                     	;# 
  1251  0393                     	;# 
  1252  039A                     	;# 
  1253  039B                     	;# 
  1254  0611                     	;# 
  1255  0612                     	;# 
  1256  0613                     	;# 
  1257  0613                     	;# 
  1258  0614                     	;# 
  1259  0615                     	;# 
  1260  0616                     	;# 
  1261  0616                     	;# 
  1262  0691                     	;# 
  1263  0692                     	;# 
  1264  0693                     	;# 
  1265  0694                     	;# 
  1266  0695                     	;# 
  1267  0E8E                     	;# 
  1268  0E8F                     	;# 
  1269  0E90                     	;# 
  1270  0E91                     	;# 
  1271  0E92                     	;# 
  1272  0E93                     	;# 
  1273  0E94                     	;# 
  1274  0E94                     	;# 
  1275  0E95                     	;# 
  1276  0E96                     	;# 
  1277  0E97                     	;# 
  1278  0E98                     	;# 
  1279  0E99                     	;# 
  1280  0E9A                     	;# 
  1281  0E9B                     	;# 
  1282  0E9C                     	;# 
  1283  0E9D                     	;# 
  1284  0E9E                     	;# 
  1285  0E9F                     	;# 
  1286  0FE4                     	;# 
  1287  0FE5                     	;# 
  1288  0FE6                     	;# 
  1289  0FE7                     	;# 
  1290  0FE8                     	;# 
  1291  0FE9                     	;# 
  1292  0FEA                     	;# 
  1293  0FEB                     	;# 
  1294  0FED                     	;# 
  1295  0FEE                     	;# 
  1296  0FEF                     	;# 
  1297                           
  1298                           	psect	idataBANK4
  1299  0908                     __pidataBANK4:	
  1300                           
  1301                           ;initializer for _echoMessage
  1302  0908  3459               	retlw	89
  1303  0909  346F               	retlw	111
  1304  090A  3475               	retlw	117
  1305  090B  3420               	retlw	32
  1306  090C  3473               	retlw	115
  1307  090D  3461               	retlw	97
  1308  090E  3469               	retlw	105
  1309  090F  3464               	retlw	100
  1310  0910  343A               	retlw	58
  1311  0911  3420               	retlw	32
  1312  0912  3400               	retlw	0
  1313                           
  1314                           ;initializer for _buttonMessage
  1315  0913  3442               	retlw	66
  1316  0914  3475               	retlw	117
  1317  0915  3466               	retlw	102
  1318  0916  3466               	retlw	102
  1319  0917  3465               	retlw	101
  1320  0918  3472               	retlw	114
  1321  0919  3420               	retlw	32
  1322  091A  346F               	retlw	111
  1323  091B  3476               	retlw	118
  1324  091C  3465               	retlw	101
  1325  091D  3472               	retlw	114
  1326  091E  3466               	retlw	102
  1327  091F  346C               	retlw	108
  1328  0920  346F               	retlw	111
  1329  0921  3477               	retlw	119
  1330  0922  3421               	retlw	33
  1331  0923  340D               	retlw	13
  1332  0924  340A               	retlw	10
  1333  0925  3400               	retlw	0
  1334                           
  1335                           	psect	stringtext
  1336  054C                     __pstringtext:	
  1337  054C                     _USB_SD_Ptr:	
  1338  054C  34ED               	retlw	low (_sd000| (0+32768))
  1339  054D  3485               	retlw	high (_sd000| (0+32768))
  1340  054E  3497               	retlw	low (_sd001| (0+32768))
  1341  054F  3485               	retlw	high (_sd001| (0+32768))
  1342  0550  34BD               	retlw	low (_sd002| (0+32768))
  1343  0551  3485               	retlw	high (_sd002| (0+32768))
  1344  0552                     __end_of_USB_SD_Ptr:	
  1345  0552                     _USB_CD_Ptr:	
  1346  0552  3454               	retlw	low (_configDescriptor1| (0+32768))
  1347  0553  3485               	retlw	high (_configDescriptor1| (0+32768))
  1348  0554                     __end_of_USB_CD_Ptr:	
  1349  0554                     _configDescriptor1:	
  1350  0554  3409               	retlw	9
  1351  0555  3402               	retlw	2
  1352  0556  3443               	retlw	67
  1353  0557  3400               	retlw	0
  1354  0558  3402               	retlw	2
  1355  0559  3401               	retlw	1
  1356  055A  3400               	retlw	0
  1357  055B  34C0               	retlw	192
  1358  055C  3432               	retlw	50
  1359  055D  3409               	retlw	9
  1360  055E  3404               	retlw	4
  1361  055F  3400               	retlw	0
  1362  0560  3400               	retlw	0
  1363  0561  3401               	retlw	1
  1364  0562  3402               	retlw	2
  1365  0563  3402               	retlw	2
  1366  0564  3401               	retlw	1
  1367  0565  3400               	retlw	0
  1368  0566  3405               	retlw	5
  1369  0567  3424               	retlw	36
  1370  0568  3400               	retlw	0
  1371  0569  3410               	retlw	16
  1372  056A  3401               	retlw	1
  1373  056B  3404               	retlw	4
  1374  056C  3424               	retlw	36
  1375  056D  3402               	retlw	2
  1376  056E  3402               	retlw	2
  1377  056F  3405               	retlw	5
  1378  0570  3424               	retlw	36
  1379  0571  3406               	retlw	6
  1380  0572  3400               	retlw	0
  1381  0573  3401               	retlw	1
  1382  0574  3405               	retlw	5
  1383  0575  3424               	retlw	36
  1384  0576  3401               	retlw	1
  1385  0577  3400               	retlw	0
  1386  0578  3401               	retlw	1
  1387  0579  3407               	retlw	7
  1388  057A  3405               	retlw	5
  1389  057B  3481               	retlw	129
  1390  057C  3403               	retlw	3
  1391  057D  3408               	retlw	8
  1392  057E  3400               	retlw	0
  1393  057F  3402               	retlw	2
  1394  0580  3409               	retlw	9
  1395  0581  3404               	retlw	4
  1396  0582  3401               	retlw	1
  1397  0583  3400               	retlw	0
  1398  0584  3402               	retlw	2
  1399  0585  340A               	retlw	10
  1400  0586  3400               	retlw	0
  1401  0587  3400               	retlw	0
  1402  0588  3400               	retlw	0
  1403  0589  3407               	retlw	7
  1404  058A  3405               	retlw	5
  1405  058B  3402               	retlw	2
  1406  058C  3402               	retlw	2
  1407  058D  3440               	retlw	64
  1408  058E  3400               	retlw	0
  1409  058F  3400               	retlw	0
  1410  0590  3407               	retlw	7
  1411  0591  3405               	retlw	5
  1412  0592  3482               	retlw	130
  1413  0593  3402               	retlw	2
  1414  0594  3440               	retlw	64
  1415  0595  3400               	retlw	0
  1416  0596  3400               	retlw	0
  1417  0597                     __end_of_configDescriptor1:	
  1418  0597                     _sd001:	
  1419  0597  3426               	retlw	38
  1420  0598  3403               	retlw	3
  1421  0599  346B               	retlw	107
  1422  059A  3400               	retlw	0
  1423  059B  3469               	retlw	105
  1424  059C  3400               	retlw	0
  1425  059D  3474               	retlw	116
  1426  059E  3400               	retlw	0
  1427  059F  3473               	retlw	115
  1428  05A0  3400               	retlw	0
  1429  05A1  3475               	retlw	117
  1430  05A2  3400               	retlw	0
  1431  05A3  346E               	retlw	110
  1432  05A4  3400               	retlw	0
  1433  05A5  3465               	retlw	101
  1434  05A6  3400               	retlw	0
  1435  05A7  342D               	retlw	45
  1436  05A8  3400               	retlw	0
  1437  05A9  3464               	retlw	100
  1438  05AA  3400               	retlw	0
  1439  05AB  3465               	retlw	101
  1440  05AC  3400               	retlw	0
  1441  05AD  346E               	retlw	110
  1442  05AE  3400               	retlw	0
  1443  05AF  3473               	retlw	115
  1444  05B0  3400               	retlw	0
  1445  05B1  3468               	retlw	104
  1446  05B2  3400               	retlw	0
  1447  05B3  3469               	retlw	105
  1448  05B4  3400               	retlw	0
  1449  05B5  342E               	retlw	46
  1450  05B6  3400               	retlw	0
  1451  05B7  346E               	retlw	110
  1452  05B8  3400               	retlw	0
  1453  05B9  3465               	retlw	101
  1454  05BA  3400               	retlw	0
  1455  05BB  3474               	retlw	116
  1456  05BC  3400               	retlw	0
  1457  05BD                     __end_of_sd001:	
  1458  05BD                     _sd002:	
  1459  05BD  341E               	retlw	30
  1460  05BE  3403               	retlw	3
  1461  05BF  3453               	retlw	83
  1462  05C0  3400               	retlw	0
  1463  05C1  3479               	retlw	121
  1464  05C2  3400               	retlw	0
  1465  05C3  3473               	retlw	115
  1466  05C4  3400               	retlw	0
  1467  05C5  3474               	retlw	116
  1468  05C6  3400               	retlw	0
  1469  05C7  3465               	retlw	101
  1470  05C8  3400               	retlw	0
  1471  05C9  346D               	retlw	109
  1472  05CA  3400               	retlw	0
  1473  05CB  3420               	retlw	32
  1474  05CC  3400               	retlw	0
  1475  05CD  344D               	retlw	77
  1476  05CE  3400               	retlw	0
  1477  05CF  346F               	retlw	111
  1478  05D0  3400               	retlw	0
  1479  05D1  346E               	retlw	110
  1480  05D2  3400               	retlw	0
  1481  05D3  3469               	retlw	105
  1482  05D4  3400               	retlw	0
  1483  05D5  3474               	retlw	116
  1484  05D6  3400               	retlw	0
  1485  05D7  346F               	retlw	111
  1486  05D8  3400               	retlw	0
  1487  05D9  3472               	retlw	114
  1488  05DA  3400               	retlw	0
  1489  05DB                     __end_of_sd002:	
  1490  05DB                     _device_dsc:	
  1491  05DB  3412               	retlw	18
  1492  05DC  3401               	retlw	1
  1493  05DD  3400               	retlw	0
  1494  05DE  3402               	retlw	2
  1495  05DF  3402               	retlw	2
  1496  05E0  3400               	retlw	0
  1497  05E1  3400               	retlw	0
  1498  05E2  3408               	retlw	8
  1499  05E3  34D8               	retlw	216
  1500  05E4  3404               	retlw	4
  1501  05E5  340A               	retlw	10
  1502  05E6  3400               	retlw	0
  1503  05E7  3400               	retlw	0
  1504  05E8  3401               	retlw	1
  1505  05E9  3401               	retlw	1
  1506  05EA  3402               	retlw	2
  1507  05EB  3400               	retlw	0
  1508  05EC  3401               	retlw	1
  1509  05ED                     __end_of_device_dsc:	
  1510  05ED                     _sd000:	
  1511  05ED  3404               	retlw	4
  1512  05EE  3403               	retlw	3
  1513  05EF  3409               	retlw	9
  1514  05F0  3404               	retlw	4
  1515  05F1                     __end_of_sd000:	
  1516  000B                     _INTCONbits	set	11
  1517  0011                     _PIR1bits	set	17
  1518  0012                     _PIR2bits	set	18
  1519  001B                     _PR2	set	27
  1520  001C                     _T2CON	set	28
  1521  001C                     _T2CONbits	set	28
  1522  001A                     _TMR2	set	26
  1523  0099                     _OSCCON	set	153
  1524  0092                     _PIE2bits	set	146
  1525  008C                     _TRISA	set	140
  1526  008E                     _TRISC	set	142
  1527  011D                     _APFCON	set	285
  1528  010C                     _LATA	set	268
  1529  018C                     _ANSELA	set	396
  1530  018E                     _ANSELC	set	398
  1531  039B                     _ACTCON	set	923
  1532  0613                     _PWM1CON	set	1555
  1533  0612                     _PWM1DCH	set	1554
  1534  0611                     _PWM1DCL	set	1553
  1535  0616                     _PWM2CON	set	1558
  1536  0615                     _PWM2DCH	set	1557
  1537  0614                     _PWM2DCL	set	1556
  1538  0E96                     _UADDR	set	3734
  1539  0E91                     _UCFG	set	3729
  1540  0E8E                     _UCON	set	3726
  1541  0E8E                     _UCONbits	set	3726
  1542  0E97                     _UEIE	set	3735
  1543  0E93                     _UEIR	set	3731
  1544  0E98                     _UEP0bits	set	3736
  1545  0E92                     _UIE	set	3730
  1546  0E92                     _UIEbits	set	3730
  1547  0E90                     _UIR	set	3728
  1548  0E90                     _UIRbits	set	3728
  1549  0E8F                     _USTAT	set	3727
  1550  0E98                     _UEP0	set	3736
  1551  0E99                     _UEP1	set	3737
  1552                           
  1553                           ; #config settings
  1554  0000                     
  1555                           	psect	cinit
  1556  0014                     start_initialization:	
  1557  0014                     __initialization:	
  1558                           
  1559                           ; Clear objects allocated to BANK1
  1560  0014  0021               	movlb	1	; select bank1
  1561  0015  01E7               	clrf	__pbssBANK1& (0+127)
  1562  0016  01E8               	clrf	(__pbssBANK1+1)& (0+127)
  1563  0017  01E9               	clrf	(__pbssBANK1+2)& (0+127)
  1564  0018  01EA               	clrf	(__pbssBANK1+3)& (0+127)
  1565  0019  01EB               	clrf	(__pbssBANK1+4)& (0+127)
  1566  001A  01EC               	clrf	(__pbssBANK1+5)& (0+127)
  1567                           
  1568                           ; Clear objects allocated to BANK3
  1569  001B  30A0               	movlw	low __pbssBANK3
  1570  001C  0084               	movwf	4
  1571  001D  3001               	movlw	high __pbssBANK3
  1572  001E  0085               	movwf	5
  1573  001F  304F               	movlw	79
  1574  0020  3188  204B  3180   	fcall	clear_ram0
  1575                           
  1576                           ; Clear objects allocated to BANK4
  1577  0023  303E               	movlw	low __pbssBANK4
  1578  0024  0084               	movwf	4
  1579  0025  3002               	movlw	high __pbssBANK4
  1580  0026  0085               	movwf	5
  1581  0027  3012               	movlw	18
  1582  0028  3188  204B  3180   	fcall	clear_ram0
  1583                           
  1584                           ; Clear objects allocated to BANK5
  1585  002B  30A0               	movlw	low __pbssBANK5
  1586  002C  0084               	movwf	4
  1587  002D  3002               	movlw	high __pbssBANK5
  1588  002E  0085               	movwf	5
  1589  002F  3040               	movlw	64
  1590  0030  3188  204B  3180   	fcall	clear_ram0
  1591                           
  1592                           ; Clear objects allocated to BANK6
  1593  0033  3020               	movlw	low __pbssBANK6
  1594  0034  0084               	movwf	4
  1595  0035  3003               	movlw	high __pbssBANK6
  1596  0036  0085               	movwf	5
  1597  0037  3040               	movlw	64
  1598  0038  3188  204B  3180   	fcall	clear_ram0
  1599                           
  1600                           ; Initialize objects allocated to BANK4
  1601  003B  3008               	movlw	low __pidataBANK4
  1602  003C  0084               	movwf	4
  1603  003D  3089               	movlw	(high __pidataBANK4)| (0+128)
  1604  003E  0085               	movwf	5
  1605  003F  3020               	movlw	low __pdataBANK4
  1606  0040  0086               	movwf	6
  1607  0041  3002               	movlw	high __pdataBANK4
  1608  0042  0087               	movwf	7
  1609  0043  301E               	movlw	30
  1610  0044  3188  2045         	fcall	init_ram
  1611  0046                     end_of_initialization:	
  1612                           ;End of C runtime variable initialization code
  1613                           
  1614  0046                     __end_of__initialization:	
  1615  0046  107E               	bcf	int$flags,0	;clear compiler interrupt flag (level 1)
  1616  0047  0020               	movlb	0
  1617  0048  318A  2AC1         	ljmp	_main	;jump to C main() function
  1618                           
  1619                           	psect	bssBANK1
  1620  00E7                     __pbssBANK1:	
  1621  00E7                     _inPipes:	
  1622  00E7                     	ds	5
  1623  00EC                     _pBDTEntryEP0OutNext:	
  1624  00EC                     	ds	1
  1625                           
  1626                           	psect	bssBANK3
  1627  01A0                     __pbssBANK3:	
  1628  01A0                     _outPipes:	
  1629  01A0                     	ds	7
  1630  01A7                     _BaudRateGen:	
  1631  01A7                     	ds	4
  1632  01AB                     _USB1msTickCount:	
  1633  01AB                     	ds	4
  1634  01AF                     _ep_data_in:	
  1635  01AF                     	ds	3
  1636  01B2                     _ep_data_out:	
  1637  01B2                     	ds	3
  1638  01B5                     _pBDTEntryIn:	
  1639  01B5                     	ds	3
  1640  01B8                     _pBDTEntryOut:	
  1641  01B8                     	ds	3
  1642  01BB                     APP_LEDUpdateUSBStatus@ledCount:	
  1643  01BB                     	ds	2
  1644  01BD                     _pCDCDst:	
  1645  01BD                     	ds	2
  1646  01BF                     _pCDCSrc:	
  1647  01BF                     	ds	2
  1648  01C1                     APP_DeviceCDCBasicDemoTasks@msg_buf_idx:	
  1649  01C1                     	ds	1
  1650  01C2                     APP_DeviceCDCBasicDemoTasks@msg_done:	
  1651  01C2                     	ds	1
  1652  01C3                     APP_DeviceCDCBasicDemoTasks@msg_type:	
  1653  01C3                     	ds	1
  1654  01C4                     _BothEP0OutUOWNsSet:	
  1655  01C4                     	ds	1
  1656  01C5                     _CDCDataInHandle:	
  1657  01C5                     	ds	1
  1658  01C6                     _CDCDataOutHandle:	
  1659  01C6                     	ds	1
  1660  01C7                     _RemoteWakeup:	
  1661  01C7                     	ds	1
  1662  01C8                     _USBBusIsSuspended:	
  1663  01C8                     	ds	1
  1664  01C9                     _USBDeferINDataStagePackets:	
  1665  01C9                     	ds	1
  1666  01CA                     _USBDeferOUTDataStagePackets:	
  1667  01CA                     	ds	1
  1668  01CB                     _USBDeferStatusStagePacket:	
  1669  01CB                     	ds	1
  1670  01CC                     _USBDeviceState:	
  1671  01CC                     	ds	1
  1672  01CD                     _USBStatusStageEnabledFlag1:	
  1673  01CD                     	ds	1
  1674  01CE                     _USBStatusStageEnabledFlag2:	
  1675  01CE                     	ds	1
  1676  01CF                     _USBStatusStageTimeoutCounter:	
  1677  01CF                     	ds	1
  1678  01D0                     _USBTicksSinceSuspendEnd:	
  1679  01D0                     	ds	1
  1680  01D1                     _buttonPressed:	
  1681  01D1                     	ds	1
  1682  01D2                     _cdc_mem_type:	
  1683  01D2                     	ds	1
  1684  01D3                     _cdc_rx_len:	
  1685  01D3                     	ds	1
  1686  01D4                     _cdc_trf_state:	
  1687  01D4                     	ds	1
  1688  01D5                     _cdc_tx_len:	
  1689  01D5                     	ds	1
  1690  01D6                     _controlTransferState:	
  1691  01D6                     	ds	1
  1692  01D7                     _control_signal_bitmap:	
  1693  01D7                     	ds	1
  1694  01D8                     _endpoint_number:	
  1695  01D8                     	ds	1
  1696  01D9                     _pBDTEntryEP0OutCurrent:	
  1697  01D9                     	ds	1
  1698  01DA                     _pDst:	
  1699  01DA                     	ds	1
  1700  01DB                     _shortPacketStatus:	
  1701  01DB                     	ds	1
  1702  01DC                     _msg_buffer:	
  1703  01DC                     	ds	8
  1704  01E4                     _line_coding:	
  1705  01E4                     	ds	7
  1706  01EB                     _USBAlternateInterface:	
  1707  01EB                     	ds	2
  1708  01ED                     _USBActiveConfiguration:	
  1709  01ED                     	ds	1
  1710  01EE                     _USTATcopy:	
  1711  01EE                     	ds	1
  1712                           
  1713                           	psect	bssBANK4
  1714  023E                     __pbssBANK4:	
  1715  023E                     _cdc_notice:	
  1716  023E                     	ds	10
  1717  0248                     _dummy_encapsulated_cmd_response:	
  1718  0248                     	ds	8
  1719                           
  1720                           	psect	dataBANK4
  1721  0220                     __pdataBANK4:	
  1722  0220                     _echoMessage:	
  1723  0220                     	ds	11
  1724  022B                     _buttonMessage:	
  1725  022B                     	ds	19
  1726                           
  1727                           	psect	bssBANK5
  1728  02A0                     __pbssBANK5:	
  1729  02A0                     _readBuffer:	
  1730  02A0                     	ds	64
  1731                           
  1732                           	psect	bssBANK6
  1733  0320                     __pbssBANK6:	
  1734  0320                     _writeBuffer:	
  1735  0320                     	ds	64
  1736                           
  1737                           	psect	clrtext
  1738  084B                     clear_ram0:	
  1739                           ;	Called with FSR0 containing the base address, and
  1740                           ;	WREG with the size to clear
  1741                           
  1742  084B  0064               	clrwdt	;clear the watchdog before getting into this loop
  1743  084C                     clrloop0:	
  1744  084C  0180               	clrf	0	;clear RAM location pointed to by FSR
  1745  084D  3101               	addfsr 0,1
  1746  084E  0B89               	decfsz	9,f	;Have we reached the end of clearing yet?
  1747  084F  284C               	goto	clrloop0	;have we reached the end yet?
  1748  0850  3400               	retlw	0	;all done for this memory range, return
  1749                           
  1750                           	psect	inittext
  1751  0845                     init_ram:	
  1752  0845  00FE               	movwf	126
  1753  0846                     initloop:	
  1754  0846  0012               	moviw fsr0++
  1755  0847  001E               	movwi fsr1++
  1756  0848  0BFE               	decfsz	126,f
  1757  0849  2846               	goto	initloop
  1758  084A  3400               	retlw	0
  1759                           
  1760                           	psect	cstackBANK4
  1761  0250                     __pcstackBANK4:	
  1762  0250                     APP_DeviceCDCBasicDemoTasks@numBytesRead:	
  1763                           
  1764                           ; 1 bytes @ 0x0
  1765  0250                     	ds	1
  1766  0251                     APP_DeviceCDCBasicDemoTasks@number:	
  1767                           
  1768                           ; 2 bytes @ 0x1
  1769  0251                     	ds	2
  1770  0253                     APP_DeviceCDCBasicDemoTasks@i:	
  1771                           
  1772                           ; 1 bytes @ 0x3
  1773  0253                     	ds	1
  1774                           
  1775                           	psect	cstackBANK3
  1776  01EF                     __pcstackBANK3:	
  1777  01EF                     ??_main:	
  1778                           
  1779                           ; 0 bytes @ 0x0
  1780  01EF                     	ds	1
  1781                           
  1782                           	psect	cstackBANK2
  1783  0160                     __pcstackBANK2:	
  1784  0160                     ??_SYSTEM_Initialize:	
  1785  0160                     ??_isdigit:	
  1786                           ; 0 bytes @ 0x0
  1787                           
  1788  0160                     ??_putrsUSBUSART:	
  1789                           ; 0 bytes @ 0x0
  1790                           
  1791  0160                     ??_USBDeviceInit:	
  1792                           ; 0 bytes @ 0x0
  1793                           
  1794  0160                     ??_USBDeviceAttach:	
  1795                           ; 0 bytes @ 0x0
  1796                           
  1797  0160                     ?_USBTransferOnePacket:	
  1798                           ; 0 bytes @ 0x0
  1799                           
  1800  0160                     ?___wmul:	
  1801                           ; 1 bytes @ 0x0
  1802                           
  1803  0160                     USBTransferOnePacket@dir:	
  1804                           ; 2 bytes @ 0x0
  1805                           
  1806  0160                     SYSTEM_Initialize@state:	
  1807                           ; 1 bytes @ 0x0
  1808                           
  1809  0160                     _isdigit$2126:	
  1810                           ; 1 bytes @ 0x0
  1811                           
  1812  0160                     ___wmul@multiplier:	
  1813                           ; 1 bytes @ 0x0
  1814                           
  1815                           
  1816                           ; 2 bytes @ 0x0
  1817  0160                     	ds	1
  1818  0161                     putrsUSBUSART@pData:	
  1819  0161                     isdigit@c:	
  1820                           ; 1 bytes @ 0x1
  1821                           
  1822  0161                     USBDeviceInit@p:	
  1823                           ; 1 bytes @ 0x1
  1824                           
  1825  0161                     USBTransferOnePacket@data:	
  1826                           ; 2 bytes @ 0x1
  1827                           
  1828                           
  1829                           ; 2 bytes @ 0x1
  1830  0161                     	ds	1
  1831  0162                     putrsUSBUSART@data:	
  1832  0162                     ___wmul@multiplicand:	
  1833                           ; 1 bytes @ 0x2
  1834                           
  1835                           
  1836                           ; 2 bytes @ 0x2
  1837  0162                     	ds	1
  1838  0163                     putrsUSBUSART@len:	
  1839  0163                     USBDeviceInit@i_1187:	
  1840                           ; 1 bytes @ 0x3
  1841                           
  1842  0163                     USBTransferOnePacket@len:	
  1843                           ; 1 bytes @ 0x3
  1844                           
  1845                           
  1846                           ; 1 bytes @ 0x3
  1847  0163                     	ds	1
  1848  0164                     ??_USBTransferOnePacket:	
  1849  0164                     ??___wmul:	
  1850                           ; 0 bytes @ 0x4
  1851                           
  1852  0164                     USBDeviceInit@i:	
  1853                           ; 0 bytes @ 0x4
  1854                           
  1855  0164                     ___wmul@product:	
  1856                           ; 1 bytes @ 0x4
  1857                           
  1858                           
  1859                           ; 2 bytes @ 0x4
  1860  0164                     	ds	2
  1861  0166                     ?_atoi:	
  1862  0166                     USBTransferOnePacket@ep:	
  1863                           ; 2 bytes @ 0x6
  1864                           
  1865                           
  1866                           ; 1 bytes @ 0x6
  1867  0166                     	ds	1
  1868  0167                     USBTransferOnePacket@handle:	
  1869                           
  1870                           ; 1 bytes @ 0x7
  1871  0167                     	ds	1
  1872  0168                     ??_atoi:	
  1873  0168                     ??_CDCTxService:	
  1874                           ; 0 bytes @ 0x8
  1875                           
  1876  0168                     ?_getsUSBUSART:	
  1877                           ; 0 bytes @ 0x8
  1878                           
  1879  0168                     getsUSBUSART@len:	
  1880                           ; 1 bytes @ 0x8
  1881                           
  1882                           
  1883                           ; 1 bytes @ 0x8
  1884  0168                     	ds	1
  1885  0169                     ??_getsUSBUSART:	
  1886                           
  1887                           ; 0 bytes @ 0x9
  1888  0169                     	ds	1
  1889  016A                     CDCTxService@i:	
  1890  016A                     atoi@sign:	
  1891                           ; 1 bytes @ 0xA
  1892                           
  1893                           
  1894                           ; 1 bytes @ 0xA
  1895  016A                     	ds	1
  1896  016B                     getsUSBUSART@buffer:	
  1897  016B                     CDCTxService@byte_to_send:	
  1898                           ; 1 bytes @ 0xB
  1899                           
  1900  016B                     atoi@a:	
  1901                           ; 1 bytes @ 0xB
  1902                           
  1903                           
  1904                           ; 2 bytes @ 0xB
  1905  016B                     	ds	2
  1906  016D                     atoi@s:	
  1907                           
  1908                           ; 1 bytes @ 0xD
  1909  016D                     	ds	1
  1910  016E                     ??_APP_DeviceCDCBasicDemoTasks:	
  1911                           
  1912                           ; 0 bytes @ 0xE
  1913  016E                     	ds	2
  1914                           
  1915                           	psect	cstackBANK1
  1916  00E0                     __pcstackBANK1:	
  1917  00E0                     ??_USBCtrlEPService:	
  1918                           
  1919                           ; 0 bytes @ 0x0
  1920  00E0                     	ds	3
  1921  00E3                     ??_USBDeviceTasks:	
  1922                           
  1923                           ; 0 bytes @ 0x3
  1924  00E3                     	ds	2
  1925  00E5                     USBDeviceTasks@i:	
  1926                           
  1927                           ; 1 bytes @ 0x5
  1928  00E5                     	ds	1
  1929  00E6                     ??_SYS_InterruptHigh:	
  1930                           
  1931                           ; 0 bytes @ 0x6
  1932  00E6                     	ds	1
  1933                           
  1934                           	psect	cstackCOMMON
  1935  0070                     __pcstackCOMMON:	
  1936  0070                     ?_USBWakeFromSuspend:	
  1937  0070                     ?_USBSuspend:	
  1938                           ; 0 bytes @ 0x0
  1939                           
  1940  0070                     ?_USBIncrement1msInternalTimers:	
  1941                           ; 0 bytes @ 0x0
  1942                           
  1943  0070                     ??_USBIncrement1msInternalTimers:	
  1944                           ; 0 bytes @ 0x0
  1945                           
  1946  0070                     ?_USBCtrlEPAllowStatusStage:	
  1947                           ; 0 bytes @ 0x0
  1948                           
  1949  0070                     ??_USBCtrlEPAllowStatusStage:	
  1950                           ; 0 bytes @ 0x0
  1951                           
  1952  0070                     ?_USBStallHandler:	
  1953                           ; 0 bytes @ 0x0
  1954                           
  1955  0070                     ??_USBStallHandler:	
  1956                           ; 0 bytes @ 0x0
  1957                           
  1958  0070                     ?_USBCtrlEPService:	
  1959                           ; 0 bytes @ 0x0
  1960                           
  1961  0070                     ?_USBConfigureEndpoint:	
  1962                           ; 0 bytes @ 0x0
  1963                           
  1964  0070                     ?_USBCtrlTrfTxService:	
  1965                           ; 0 bytes @ 0x0
  1966                           
  1967  0070                     ??_USBCtrlTrfTxService:	
  1968                           ; 0 bytes @ 0x0
  1969                           
  1970  0070                     ?_USBCtrlTrfSetupHandler:	
  1971                           ; 0 bytes @ 0x0
  1972                           
  1973  0070                     ?_USBCtrlTrfOutHandler:	
  1974                           ; 0 bytes @ 0x0
  1975                           
  1976  0070                     ?_USBCtrlTrfInHandler:	
  1977                           ; 0 bytes @ 0x0
  1978                           
  1979  0070                     ?_USBCheckStdRequest:	
  1980                           ; 0 bytes @ 0x0
  1981                           
  1982  0070                     ?_USBStdFeatureReqHandler:	
  1983                           ; 0 bytes @ 0x0
  1984                           
  1985  0070                     ?_SYSTEM_Initialize:	
  1986                           ; 0 bytes @ 0x0
  1987                           
  1988  0070                     ?_APP_DeviceCDCBasicDemoTasks:	
  1989                           ; 0 bytes @ 0x0
  1990                           
  1991  0070                     ?_APP_DeviceCDCBasicDemoInitialize:	
  1992                           ; 0 bytes @ 0x0
  1993                           
  1994  0070                     ?_LED_Off:	
  1995                           ; 0 bytes @ 0x0
  1996                           
  1997  0070                     ??_LED_Off:	
  1998                           ; 0 bytes @ 0x0
  1999                           
  2000  0070                     ?_LED_On:	
  2001                           ; 0 bytes @ 0x0
  2002                           
  2003  0070                     ??_LED_On:	
  2004                           ; 0 bytes @ 0x0
  2005                           
  2006  0070                     ?_isdigit:	
  2007                           ; 0 bytes @ 0x0
  2008                           
  2009  0070                     ?_USBCheckCDCRequest:	
  2010                           ; 1 bit 
  2011                           
  2012  0070                     ??_USBCheckCDCRequest:	
  2013                           ; 0 bytes @ 0x0
  2014                           
  2015  0070                     ?_CDCInitEP:	
  2016                           ; 0 bytes @ 0x0
  2017                           
  2018  0070                     ?_putrsUSBUSART:	
  2019                           ; 0 bytes @ 0x0
  2020                           
  2021  0070                     ?_CDCTxService:	
  2022                           ; 0 bytes @ 0x0
  2023                           
  2024  0070                     ?_USBDeviceInit:	
  2025                           ; 0 bytes @ 0x0
  2026                           
  2027  0070                     ?_USBDeviceTasks:	
  2028                           ; 0 bytes @ 0x0
  2029                           
  2030  0070                     ?_USBDeviceAttach:	
  2031                           ; 0 bytes @ 0x0
  2032                           
  2033  0070                     ?_USBCtrlEPAllowDataStage:	
  2034                           ; 0 bytes @ 0x0
  2035                           
  2036  0070                     ?_USBCtrlEPServiceComplete:	
  2037                           ; 0 bytes @ 0x0
  2038                           
  2039  0070                     ?_USBCtrlTrfRxService:	
  2040                           ; 0 bytes @ 0x0
  2041                           
  2042  0070                     ?_USBStdSetCfgHandler:	
  2043                           ; 0 bytes @ 0x0
  2044                           
  2045  0070                     ?_USBStdGetDscHandler:	
  2046                           ; 0 bytes @ 0x0
  2047                           
  2048  0070                     ??_USBStdGetDscHandler:	
  2049                           ; 0 bytes @ 0x0
  2050                           
  2051  0070                     ?_USBStdGetStatusHandler:	
  2052                           ; 0 bytes @ 0x0
  2053                           
  2054  0070                     ??_USBStdGetStatusHandler:	
  2055                           ; 0 bytes @ 0x0
  2056                           
  2057  0070                     ?_main:	
  2058                           ; 0 bytes @ 0x0
  2059                           
  2060  0070                     ?_SYS_InterruptHigh:	
  2061                           ; 0 bytes @ 0x0
  2062                           
  2063  0070                     ?i1_USBDeviceInit:	
  2064                           ; 0 bytes @ 0x0
  2065                           
  2066  0070                     ??i1_USBDeviceInit:	
  2067                           ; 0 bytes @ 0x0
  2068                           
  2069  0070                     ?i1_SYSTEM_Initialize:	
  2070                           ; 0 bytes @ 0x0
  2071                           
  2072  0070                     ??i1_SYSTEM_Initialize:	
  2073                           ; 0 bytes @ 0x0
  2074                           
  2075  0070                     ?i1_USBTransferOnePacket:	
  2076                           ; 0 bytes @ 0x0
  2077                           
  2078  0070                     ?_memset:	
  2079                           ; 1 bytes @ 0x0
  2080                           
  2081  0070                     ?_APP_LEDUpdateUSBStatus:	
  2082                           ; 2 bytes @ 0x0
  2083                           
  2084  0070                     USBConfigureEndpoint@direction:	
  2085                           ; 2 bytes @ 0x0
  2086                           
  2087  0070                     LED_Off@led:	
  2088                           ; 1 bytes @ 0x0
  2089                           
  2090  0070                     LED_On@led:	
  2091                           ; 1 bytes @ 0x0
  2092                           
  2093  0070                     i1USBTransferOnePacket@dir:	
  2094                           ; 1 bytes @ 0x0
  2095                           
  2096  0070                     i1SYSTEM_Initialize@state:	
  2097                           ; 1 bytes @ 0x0
  2098                           
  2099  0070                     memset@p1:	
  2100                           ; 1 bytes @ 0x0
  2101                           
  2102                           
  2103                           ; 2 bytes @ 0x0
  2104  0070                     	ds	1
  2105  0071                     ??_USBConfigureEndpoint:	
  2106  0071                     ??_APP_LEDUpdateUSBStatus:	
  2107                           ; 0 bytes @ 0x1
  2108                           
  2109  0071                     USBStdGetStatusHandler@p:	
  2110                           ; 0 bytes @ 0x1
  2111                           
  2112  0071                     i1USBDeviceInit@p:	
  2113                           ; 1 bytes @ 0x1
  2114                           
  2115  0071                     i1USBTransferOnePacket@data:	
  2116                           ; 2 bytes @ 0x1
  2117                           
  2118                           
  2119                           ; 2 bytes @ 0x1
  2120  0071                     	ds	1
  2121  0072                     ??_USBCtrlTrfRxService:	
  2122  0072                     USBCtrlTrfTxService@byteToSend:	
  2123                           ; 0 bytes @ 0x2
  2124                           
  2125  0072                     memset@c:	
  2126                           ; 1 bytes @ 0x2
  2127                           
  2128                           
  2129                           ; 2 bytes @ 0x2
  2130  0072                     	ds	1
  2131  0073                     ??_USBCtrlTrfInHandler:	
  2132  0073                     ??_USBCtrlEPAllowDataStage:	
  2133                           ; 0 bytes @ 0x3
  2134                           
  2135  0073                     i1USBDeviceInit@i_1187:	
  2136                           ; 0 bytes @ 0x3
  2137                           
  2138  0073                     i1USBTransferOnePacket@len:	
  2139                           ; 1 bytes @ 0x3
  2140                           
  2141                           
  2142                           ; 1 bytes @ 0x3
  2143  0073                     	ds	1
  2144  0074                     ??i1_USBTransferOnePacket:	
  2145  0074                     USBCtrlTrfRxService@i:	
  2146                           ; 0 bytes @ 0x4
  2147                           
  2148  0074                     i1USBDeviceInit@i:	
  2149                           ; 1 bytes @ 0x4
  2150                           
  2151  0074                     memset@n:	
  2152                           ; 1 bytes @ 0x4
  2153                           
  2154                           
  2155                           ; 2 bytes @ 0x4
  2156  0074                     	ds	1
  2157  0075                     ??_USBCtrlEPServiceComplete:	
  2158  0075                     USBConfigureEndpoint@EPNum:	
  2159                           ; 0 bytes @ 0x5
  2160                           
  2161  0075                     USBCtrlTrfRxService@byteToRead:	
  2162                           ; 1 bytes @ 0x5
  2163                           
  2164  0075                     USBCtrlTrfInHandler@lastDTS:	
  2165                           ; 1 bytes @ 0x5
  2166                           
  2167                           
  2168                           ; 1 bytes @ 0x5
  2169  0075                     	ds	1
  2170  0076                     ??_memset:	
  2171  0076                     ??_USBCtrlTrfOutHandler:	
  2172                           ; 0 bytes @ 0x6
  2173                           
  2174  0076                     USBConfigureEndpoint@handle:	
  2175                           ; 0 bytes @ 0x6
  2176                           
  2177  0076                     i1USBTransferOnePacket@ep:	
  2178                           ; 1 bytes @ 0x6
  2179                           
  2180  0076                     memset@p:	
  2181                           ; 1 bytes @ 0x6
  2182                           
  2183                           
  2184                           ; 2 bytes @ 0x6
  2185  0076                     	ds	1
  2186  0077                     ?_USBEnableEndpoint:	
  2187  0077                     USBEnableEndpoint@options:	
  2188                           ; 0 bytes @ 0x7
  2189                           
  2190  0077                     i1USBTransferOnePacket@handle:	
  2191                           ; 1 bytes @ 0x7
  2192                           
  2193                           
  2194                           ; 1 bytes @ 0x7
  2195  0077                     	ds	1
  2196  0078                     ??_USBEnableEndpoint:	
  2197                           
  2198                           ; 0 bytes @ 0x8
  2199  0078                     	ds	2
  2200  007A                     USBEnableEndpoint@p:	
  2201                           
  2202                           ; 2 bytes @ 0xA
  2203  007A                     	ds	2
  2204  007C                     USBEnableEndpoint@ep:	
  2205                           
  2206                           ; 1 bytes @ 0xC
  2207  007C                     	ds	1
  2208  007D                     ??_APP_DeviceCDCBasicDemoInitialize:	
  2209                           
  2210                           ; 0 bytes @ 0xD
  2211  007D                     	ds	1
  2212  007E                     ??_USER_USB_CALLBACK_EVENT_HANDLER:	
  2213                           
  2214                           	psect	cstackBANK0h
  2215  0060                     __pcstackBANK0h:	
  2216                           ; 0 bytes @ 0xE
  2217                           
  2218  0060                     ??_CDCInitEP:	
  2219                           
  2220                           ; 0 bytes @ 0x0
  2221  0060                     	ds	2
  2222  0062                     ?_USER_USB_CALLBACK_EVENT_HANDLER:	
  2223  0062                     USER_USB_CALLBACK_EVENT_HANDLER@event:	
  2224                           ; 1 bytes @ 0x2
  2225                           
  2226                           
  2227                           ; 2 bytes @ 0x2
  2228  0062                     	ds	2
  2229  0064                     USER_USB_CALLBACK_EVENT_HANDLER@pdata:	
  2230                           
  2231                           ; 2 bytes @ 0x4
  2232  0064                     	ds	2
  2233  0066                     USER_USB_CALLBACK_EVENT_HANDLER@size:	
  2234                           
  2235                           ; 2 bytes @ 0x6
  2236  0066                     	ds	2
  2237  0068                     ??_USBWakeFromSuspend:	
  2238  0068                     ??_USBSuspend:	
  2239                           ; 0 bytes @ 0x8
  2240                           
  2241  0068                     ??_USBStdFeatureReqHandler:	
  2242                           ; 0 bytes @ 0x8
  2243                           
  2244  0068                     ??_USBStdSetCfgHandler:	
  2245                           ; 0 bytes @ 0x8
  2246                           
  2247                           
  2248                           ; 0 bytes @ 0x8
  2249  0068                     	ds	1
  2250  0069                     USBStdSetCfgHandler@p:	
  2251                           
  2252                           ; 2 bytes @ 0x9
  2253  0069                     	ds	1
  2254  006A                     USBStdFeatureReqHandler@pUEP:	
  2255                           
  2256                           ; 2 bytes @ 0xA
  2257  006A                     	ds	1
  2258  006B                     USBStdSetCfgHandler@i_1478:	
  2259                           
  2260                           ; 1 bytes @ 0xB
  2261  006B                     	ds	1
  2262  006C                     USBStdSetCfgHandler@i:	
  2263  006C                     USBStdFeatureReqHandler@current_ep_data:	
  2264                           ; 1 bytes @ 0xC
  2265                           
  2266                           
  2267                           ; 1 bytes @ 0xC
  2268  006C                     	ds	1
  2269  006D                     USBStdFeatureReqHandler@p:	
  2270                           
  2271                           ; 1 bytes @ 0xD
  2272  006D                     	ds	1
  2273  006E                     ??_USBCheckStdRequest:	
  2274                           
  2275                           ; 0 bytes @ 0xE
  2276  006E                     	ds	1
  2277  006F                     ??_USBCtrlTrfSetupHandler:	
  2278                           
  2279                           ; 0 bytes @ 0xF
  2280  006F                     	ds	1
  2281                           
  2282                           	psect	maintext
  2283  0AC1                     __pmaintext:	
  2284 ;;
  2285 ;;Main: autosize = 0, tempsize = 1, incstack = 0, save=0
  2286 ;;
  2287 ;; *************** function _main *****************
  2288 ;; Defined at:
  2289 ;;		line 57 in file "main.c"
  2290 ;; Parameters:    Size  Location     Type
  2291 ;;		None
  2292 ;; Auto vars:     Size  Location     Type
  2293 ;;		None
  2294 ;; Return value:  Size  Location     Type
  2295 ;;		None               void
  2296 ;; Registers used:
  2297 ;;		wreg, fsr0l, fsr0h, fsr1l, fsr1h, status,2, status,0, pclath, cstack
  2298 ;; Tracked objects:
  2299 ;;		On entry : B1F/0
  2300 ;;		On exit  : 0/0
  2301 ;;		Unchanged: 0/0
  2302 ;; Data sizes:     COMMON  BANK0h   BANK1   BANK2   BANK3   BANK4   BANK5   BANK6   BANK7   BANK8   BANK9  BANK10  BANK1
      +1  BANK12
  2303 ;;      Params:         0       0       0       0       0       0       0       0       0       0       0       0       
      +0       0
  2304 ;;      Locals:         0       0       0       0       0       0       0       0       0       0       0       0       
      +0       0
  2305 ;;      Temps:          0       0       0       0       1       0       0       0       0       0       0       0       
      +0       0
  2306 ;;      Totals:         0       0       0       0       1       0       0       0       0       0       0       0       
      +0       0
  2307 ;;Total ram usage:        1 bytes
  2308 ;; Hardware stack levels required when called:   14
  2309 ;; This function calls:
  2310 ;;		_APP_DeviceCDCBasicDemoTasks
  2311 ;;		_SYSTEM_Initialize
  2312 ;;		_USBDeviceAttach
  2313 ;;		_USBDeviceInit
  2314 ;; This function is called by:
  2315 ;;		Startup code after reset
  2316 ;; This function uses a non-reentrant model
  2317 ;;
  2318                           
  2319                           
  2320                           ;psect for function _main
  2321  0AC1                     _main:	
  2322                           
  2323                           ;main.c: 59: SYSTEM_Initialize(SYSTEM_STATE_USB_START);
  2324                           
  2325                           ;incstack = 0
  2326                           ; Regs used in _main: [wreg-fsr1h+status,2+status,0+pclath+cstack]
  2327  0AC1  3000               	movlw	0
  2328  0AC2  3188  2088  318A   	fcall	_SYSTEM_Initialize
  2329                           
  2330                           ;main.c: 62: TRISA &= ~0x10;
  2331  0AC5  30EF               	movlw	239
  2332  0AC6  0023               	movlb	3	; select bank3
  2333  0AC7  00EF               	movwf	??_main^(0+384)
  2334  0AC8  086F               	movf	??_main^(0+384),w
  2335  0AC9  0021               	movlb	1	; select bank1
  2336  0ACA  058C               	andwf	12,f	;volatile
  2337                           
  2338                           ;main.c: 63: LATA |= 0x10;
  2339  0ACB  0022               	movlb	2	; select bank2
  2340  0ACC  160C               	bsf	12,4	;volatile
  2341                           
  2342                           ;main.c: 66: T2CON = 0x03;
  2343  0ACD  3003               	movlw	3
  2344  0ACE  0020               	movlb	0	; select bank0
  2345  0ACF  009C               	movwf	28	;volatile
  2346                           
  2347                           ;main.c: 67: PR2 = 0x7F;
  2348  0AD0  307F               	movlw	127
  2349  0AD1  009B               	movwf	27	;volatile
  2350                           
  2351                           ;main.c: 68: TMR2 = 0x00;
  2352  0AD2  019A               	clrf	26	;volatile
  2353                           
  2354                           ;main.c: 69: PIR1bits.TMR2IF = 0;
  2355  0AD3  1091               	bcf	17,1	;volatile
  2356                           
  2357                           ;main.c: 70: T2CONbits.TMR2ON = 1;
  2358  0AD4  151C               	bsf	28,2	;volatile
  2359                           
  2360                           ;main.c: 73: PWM1CON = 0xC0;
  2361  0AD5  30C0               	movlw	192
  2362  0AD6  002C               	movlb	12	; select bank12
  2363  0AD7  0093               	movwf	19	;volatile
  2364                           
  2365                           ;main.c: 74: PWM1DCH = 0x3E;
  2366  0AD8  303E               	movlw	62
  2367  0AD9  0092               	movwf	18	;volatile
  2368                           
  2369                           ;main.c: 75: PWM1DCL = 0x00;
  2370  0ADA  0191               	clrf	17	;volatile
  2371                           
  2372                           ;main.c: 77: TRISC &= ~0x20;
  2373  0ADB  30DF               	movlw	223
  2374  0ADC  0023               	movlb	3	; select bank3
  2375  0ADD  00EF               	movwf	??_main^(0+384)
  2376  0ADE  086F               	movf	??_main^(0+384),w
  2377  0ADF  0021               	movlb	1	; select bank1
  2378  0AE0  058E               	andwf	14,f	;volatile
  2379                           
  2380                           ;main.c: 79: PWM2CON = 0xC0;
  2381  0AE1  30C0               	movlw	192
  2382  0AE2  002C               	movlb	12	; select bank12
  2383  0AE3  0096               	movwf	22	;volatile
  2384                           
  2385                           ;main.c: 80: PWM2DCH = 0x20;
  2386  0AE4  3020               	movlw	32
  2387  0AE5  0095               	movwf	21	;volatile
  2388                           
  2389                           ;main.c: 81: PWM2DCL = 0x00;
  2390  0AE6  0194               	clrf	20	;volatile
  2391                           
  2392                           ;main.c: 83: TRISC &= ~0x08;
  2393  0AE7  30F7               	movlw	247
  2394  0AE8  0023               	movlb	3	; select bank3
  2395  0AE9  00EF               	movwf	??_main^(0+384)
  2396  0AEA  086F               	movf	??_main^(0+384),w
  2397  0AEB  0021               	movlb	1	; select bank1
  2398  0AEC  058E               	andwf	14,f	;volatile
  2399                           
  2400                           ;main.c: 87: APFCON = 0x00;
  2401  0AED  0022               	movlb	2	; select bank2
  2402  0AEE  019D               	clrf	29	;volatile
  2403                           
  2404                           ;main.c: 90: ANSELC = 0x00;
  2405  0AEF  0023               	movlb	3	; select bank3
  2406  0AF0  018E               	clrf	14	;volatile
  2407                           
  2408                           ;main.c: 91: ANSELA = 0x00;
  2409  0AF1  018C               	clrf	12	;volatile
  2410                           
  2411                           ;main.c: 96: USBDeviceInit();
  2412  0AF2  3183  23F0  318A   	fcall	_USBDeviceInit
  2413                           
  2414                           ;main.c: 97: USBDeviceAttach();
  2415  0AF5  3188  20EB  318A   	fcall	_USBDeviceAttach
  2416  0AF8                     l5690:	
  2417                           ;main.c: 99: while(1)
  2418                           
  2419                           ;main.c: 134: {
  2420                           ;main.c: 136: continue;
  2421                           
  2422                           ;main.c: 124: {
  2423                           ;main.c: 126: continue;
  2424                           
  2425                           
  2426                           ;main.c: 100: {
  2427                           ;main.c: 101: ;
  2428                           ;main.c: 123: if( USBDeviceState < CONFIGURED_STATE )
  2429  0AF8  3020               	movlw	32
  2430  0AF9  0023               	movlb	3	; select bank3
  2431  0AFA  024C               	subwf	_USBDeviceState^(0+384),w	;volatile
  2432  0AFB  1C03               	btfss	3,0
  2433  0AFC  2AF8               	goto	l5690
  2434                           
  2435                           ;main.c: 127: }
  2436                           ;main.c: 133: if( UCONbits.SUSPND== 1 )
  2437  0AFD  003D               	movlb	29	; select bank29
  2438  0AFE  188E               	btfsc	14,1	;volatile
  2439  0AFF  2AF8               	goto	l5690
  2440                           
  2441                           ;main.c: 137: }
  2442                           ;main.c: 140: APP_DeviceCDCBasicDemoTasks();
  2443  0B00  3181  2156  318A   	fcall	_APP_DeviceCDCBasicDemoTasks
  2444  0B03  2AF8               	goto	l5690
  2445  0B04                     __end_of_main:	
  2446                           
  2447                           	psect	text1
  2448  03F0                     __ptext1:	
  2449 ;; *************** function _USBDeviceInit *****************
  2450 ;; Defined at:
  2451 ;;		line 295 in file "/opt/microchip/mla/framework/usb/src/usb_device.c"
  2452 ;; Parameters:    Size  Location     Type
  2453 ;;		None
  2454 ;; Auto vars:     Size  Location     Type
  2455 ;;  p               2    1[BANK2 ] PTR unsigned char 
  2456 ;;		 -> UEP1(1), 
  2457 ;;  i               1    3[BANK2 ] unsigned char 
  2458 ;;  i               1    4[BANK2 ] unsigned char 
  2459 ;; Return value:  Size  Location     Type
  2460 ;;		None               void
  2461 ;; Registers used:
  2462 ;;		wreg, fsr1l, fsr1h, status,2, status,0
  2463 ;; Tracked objects:
  2464 ;;		On entry : 0/0
  2465 ;;		On exit  : 0/0
  2466 ;;		Unchanged: 0/0
  2467 ;; Data sizes:     COMMON  BANK0h   BANK1   BANK2   BANK3   BANK4   BANK5   BANK6   BANK7   BANK8   BANK9  BANK10  BANK1
      +1  BANK12
  2468 ;;      Params:         0       0       0       0       0       0       0       0       0       0       0       0       
      +0       0
  2469 ;;      Locals:         0       0       0       4       0       0       0       0       0       0       0       0       
      +0       0
  2470 ;;      Temps:          0       0       0       1       0       0       0       0       0       0       0       0       
      +0       0
  2471 ;;      Totals:         0       0       0       5       0       0       0       0       0       0       0       0       
      +0       0
  2472 ;;Total ram usage:        5 bytes
  2473 ;; Hardware stack levels used:    1
  2474 ;; Hardware stack levels required when called:   11
  2475 ;; This function calls:
  2476 ;;		Nothing
  2477 ;; This function is called by:
  2478 ;;		_main
  2479 ;; This function uses a non-reentrant model
  2480 ;;
  2481                           
  2482                           
  2483                           ;psect for function _USBDeviceInit
  2484  03F0                     _USBDeviceInit:	
  2485                           
  2486                           ;usb_device.c: 297: uint8_t i;
  2487                           ;usb_device.c: 299: {PIE2bits.USBIE = 0;};
  2488                           
  2489                           ;incstack = 0
  2490                           ; Regs used in _USBDeviceInit: [wreg+fsr1l+fsr1h+status,2+status,0]
  2491  03F0  0021               	movlb	1	; select bank1
  2492  03F1  1112               	bcf	18,2	;volatile
  2493                           
  2494                           ;usb_device.c: 303: ;
  2495                           ;usb_device.c: 306: {UEIR = 0;};
  2496  03F2  003D               	movlb	29	; select bank29
  2497  03F3  0193               	clrf	19	;volatile
  2498                           
  2499                           ;usb_device.c: 309: {UIR = 0;};
  2500  03F4  0190               	clrf	16	;volatile
  2501                           
  2502                           ;usb_device.c: 312: UEP0 = 0;
  2503  03F5  0198               	clrf	24	;volatile
  2504                           
  2505                           ;usb_device.c: 314: { uint8_t i; uint8_t* p = (uint8_t*)&UEP1; for(i=0;i<2;i++) *p++ = 0
      +                          ; };
  2506  03F6  300E               	movlw	14
  2507  03F7  0022               	movlb	2	; select bank2
  2508  03F8  00E2               	movwf	(USBDeviceInit@p+1)^(0+256)
  2509  03F9  3099               	movlw	153
  2510  03FA  00E1               	movwf	USBDeviceInit@p^(0+256)
  2511  03FB  01E3               	clrf	USBDeviceInit@i_1187^(0+256)
  2512  03FC  3002               	movlw	2
  2513  03FD  0263               	subwf	USBDeviceInit@i_1187^(0+256),w
  2514  03FE  1803               	btfsc	3,0
  2515  03FF  2C11               	goto	l5372
  2516  0400                     l5364:	
  2517  0400  0861               	movf	USBDeviceInit@p^(0+256),w
  2518  0401  0086               	movwf	6
  2519  0402  0862               	movf	(USBDeviceInit@p+1)^(0+256),w
  2520  0403  0087               	movwf	7
  2521  0404  0181               	clrf	1
  2522  0405  3001               	movlw	1
  2523  0406  07E1               	addwf	USBDeviceInit@p^(0+256),f
  2524  0407  3000               	movlw	0
  2525  0408  3DE2               	addwfc	(USBDeviceInit@p+1)^(0+256),f
  2526  0409  3001               	movlw	1
  2527  040A  00E0               	movwf	??_USBDeviceInit^(0+256)
  2528  040B  0860               	movf	??_USBDeviceInit^(0+256),w
  2529  040C  07E3               	addwf	USBDeviceInit@i_1187^(0+256),f
  2530  040D  3002               	movlw	2
  2531  040E  0263               	subwf	USBDeviceInit@i_1187^(0+256),w
  2532  040F  1C03               	skipc
  2533  0410  2C00               	goto	l5364
  2534  0411                     l5372:	
  2535                           
  2536                           ;usb_device.c: 316: { UCFG = 0x10 | 0x00 | 0x04 | 0x02; UEIE = 0x9F; UIE = 0x39 | 0x40 |
      +                           0x02; };
  2537  0411  3016               	movlw	22
  2538  0412  003D               	movlb	29	; select bank29
  2539  0413  0091               	movwf	17	;volatile
  2540  0414  309F               	movlw	159
  2541  0415  0097               	movwf	23	;volatile
  2542  0416  307B               	movlw	123
  2543  0417  0092               	movwf	18	;volatile
  2544                           
  2545                           ;usb_device.c: 319: ;
  2546                           ;usb_device.c: 322: ;
  2547                           ;usb_device.c: 325: for(i = 0; i < (sizeof(BDT)/sizeof(BDT_ENTRY)); i++)
  2548  0418  0022               	movlb	2	; select bank2
  2549  0419  01E4               	clrf	USBDeviceInit@i^(0+256)
  2550  041A  300C               	movlw	12
  2551  041B  0264               	subwf	USBDeviceInit@i^(0+256),w
  2552  041C  1803               	btfsc	3,0
  2553  041D  2C37               	goto	l256
  2554  041E                     l5380:	
  2555                           
  2556                           ;usb_device.c: 326: {
  2557                           ;usb_device.c: 327: BDT[i].Val = 0x00;
  2558  041E  0864               	movf	USBDeviceInit@i^(0+256),w
  2559  041F  00E0               	movwf	??_USBDeviceInit^(0+256)
  2560  0420  3001               	movlw	1
  2561  0421                     u5565:	
  2562  0421  35E0               	lslf	??_USBDeviceInit^(0+256),f
  2563  0422  3EFF               	addlw	-1
  2564  0423  1D03               	skipz
  2565  0424  2C21               	goto	u5565
  2566  0425  3560               	lslf	??_USBDeviceInit^(0+256),w
  2567  0426  3E20               	addlw	32
  2568  0427  0086               	movwf	6
  2569  0428  0187               	clrf	7
  2570  0429  3000               	movlw	0
  2571  042A  3FC0               	movwi [0]fsr1
  2572  042B  3000               	movlw	0
  2573  042C  3FC1               	movwi [1]fsr1
  2574  042D  3FC2               	movwi [2]fsr1
  2575  042E  3FC3               	movwi [3]fsr1
  2576  042F  3001               	movlw	1
  2577  0430  00E0               	movwf	??_USBDeviceInit^(0+256)
  2578  0431  0860               	movf	??_USBDeviceInit^(0+256),w
  2579  0432  07E4               	addwf	USBDeviceInit@i^(0+256),f
  2580  0433  300C               	movlw	12
  2581  0434  0264               	subwf	USBDeviceInit@i^(0+256),w
  2582  0435  1C03               	skipc
  2583  0436  2C1E               	goto	l5380
  2584  0437                     l256:	
  2585                           
  2586                           ;usb_device.c: 328: }
  2587                           ;usb_device.c: 331: UCONbits.PPBRST = 1;
  2588  0437  003D               	movlb	29	; select bank29
  2589  0438  170E               	bsf	14,6	;volatile
  2590                           
  2591                           ;usb_device.c: 334: UADDR = 0x00;
  2592  0439  0196               	clrf	22	;volatile
  2593                           
  2594                           ;usb_device.c: 337: UCONbits.PKTDIS = 0;
  2595  043A  120E               	bcf	14,4	;volatile
  2596                           
  2597                           ;usb_device.c: 340: UCONbits.PPBRST = 0;
  2598  043B  130E               	bcf	14,6	;volatile
  2599  043C                     l5392:	
  2600                           ;usb_device.c: 343: do
  2601                           
  2602                           
  2603                           ;usb_device.c: 344: {
  2604                           ;usb_device.c: 345: (UIR &= 0xF7);
  2605  043C  30F7               	movlw	247
  2606  043D  0022               	movlb	2	; select bank2
  2607  043E  00E0               	movwf	??_USBDeviceInit^(0+256)
  2608  043F  0860               	movf	??_USBDeviceInit^(0+256),w
  2609  0440  003D               	movlb	29	; select bank29
  2610  0441  0590               	andwf	16,f	;volatile
  2611                           
  2612                           ;usb_device.c: 347: inPipes[0].info.Val = 0;
  2613  0442  0021               	movlb	1	; select bank1
  2614  0443  01E9               	clrf	(_inPipes^(0+128)+2)	;volatile
  2615                           
  2616                           ;usb_device.c: 348: outPipes[0].info.Val = 0;
  2617  0444  0023               	movlb	3	; select bank3
  2618  0445  01A2               	clrf	(_outPipes^(0+384)+2)	;volatile
  2619                           
  2620                           ;usb_device.c: 349: outPipes[0].wCount.Val = 0;
  2621  0446  01A3               	clrf	(_outPipes^(0+384)+3)	;volatile
  2622  0447  01A4               	clrf	((_outPipes+1)^(0+384)+3)	;volatile
  2623                           
  2624                           ;usb_device.c: 350: }while(UIRbits.TRNIF == 1);
  2625  0448  003D               	movlb	29	; select bank29
  2626  0449  1990               	btfsc	16,3	;volatile
  2627  044A  2C3C               	goto	l5392
  2628                           
  2629                           ;usb_device.c: 354: USBStatusStageEnabledFlag1 = 1;
  2630  044B  3001               	movlw	1
  2631  044C  0022               	movlb	2	; select bank2
  2632  044D  00E0               	movwf	??_USBDeviceInit^(0+256)
  2633  044E  0860               	movf	??_USBDeviceInit^(0+256),w
  2634  044F  0023               	movlb	3	; select bank3
  2635  0450  00CD               	movwf	_USBStatusStageEnabledFlag1^(0+384)	;volatile
  2636                           
  2637                           ;usb_device.c: 355: USBStatusStageEnabledFlag2 = 1;
  2638  0451  3001               	movlw	1
  2639  0452  0022               	movlb	2	; select bank2
  2640  0453  00E0               	movwf	??_USBDeviceInit^(0+256)
  2641  0454  0860               	movf	??_USBDeviceInit^(0+256),w
  2642  0455  0023               	movlb	3	; select bank3
  2643  0456  00CE               	movwf	_USBStatusStageEnabledFlag2^(0+384)	;volatile
  2644                           
  2645                           ;usb_device.c: 357: USBDeferINDataStagePackets = 0;
  2646  0457  01C9               	clrf	_USBDeferINDataStagePackets^(0+384)	;volatile
  2647                           
  2648                           ;usb_device.c: 358: USBDeferOUTDataStagePackets = 0;
  2649  0458  01CA               	clrf	_USBDeferOUTDataStagePackets^(0+384)	;volatile
  2650                           
  2651                           ;usb_device.c: 359: USBBusIsSuspended = 0;
  2652  0459  01C8               	clrf	_USBBusIsSuspended^(0+384)	;volatile
  2653                           
  2654                           ;usb_device.c: 363: for(i = 0; i < (uint8_t)(2+1u); i++)
  2655  045A  0022               	movlb	2	; select bank2
  2656  045B  01E4               	clrf	USBDeviceInit@i^(0+256)
  2657  045C  3003               	movlw	3
  2658  045D  0264               	subwf	USBDeviceInit@i^(0+256),w
  2659  045E  1803               	btfsc	3,0
  2660  045F  2C80               	goto	l5420
  2661  0460                     l5414:	
  2662                           
  2663                           ;usb_device.c: 364: {
  2664                           ;usb_device.c: 365: pBDTEntryIn[i] = 0u;
  2665  0460  0864               	movf	USBDeviceInit@i^(0+256),w
  2666  0461  3EB5               	addlw	(low (_pBDTEntryIn| (0+256)))& (0+255)
  2667  0462  0086               	movwf	6
  2668  0463  3001               	movlw	1	; select bank3/4
  2669  0464  0087               	movwf	7
  2670  0465  0181               	clrf	1
  2671                           
  2672                           ;usb_device.c: 366: pBDTEntryOut[i] = 0u;
  2673  0466  0864               	movf	USBDeviceInit@i^(0+256),w
  2674  0467  3EB8               	addlw	(low (_pBDTEntryOut| (0+256)))& (0+255)
  2675  0468  0086               	movwf	6
  2676  0469  3001               	movlw	1	; select bank3/4
  2677  046A  0087               	movwf	7
  2678  046B  0181               	clrf	1
  2679                           
  2680                           ;usb_device.c: 367: ep_data_in[i].Val = 0u;
  2681  046C  0864               	movf	USBDeviceInit@i^(0+256),w
  2682  046D  3EAF               	addlw	(low (_ep_data_in| (0+256)))& (0+255)
  2683  046E  0086               	movwf	6
  2684  046F  3001               	movlw	1	; select bank3/4
  2685  0470  0087               	movwf	7
  2686  0471  0181               	clrf	1
  2687                           
  2688                           ;usb_device.c: 368: ep_data_out[i].Val = 0u;
  2689  0472  0864               	movf	USBDeviceInit@i^(0+256),w
  2690  0473  3EB2               	addlw	(low (_ep_data_out| (0+256)))& (0+255)
  2691  0474  0086               	movwf	6
  2692  0475  3001               	movlw	1	; select bank3/4
  2693  0476  0087               	movwf	7
  2694  0477  0181               	clrf	1
  2695  0478  3001               	movlw	1
  2696  0479  00E0               	movwf	??_USBDeviceInit^(0+256)
  2697  047A  0860               	movf	??_USBDeviceInit^(0+256),w
  2698  047B  07E4               	addwf	USBDeviceInit@i^(0+256),f
  2699  047C  3003               	movlw	3
  2700  047D  0264               	subwf	USBDeviceInit@i^(0+256),w
  2701  047E  1C03               	skipc
  2702  047F  2C60               	goto	l5414
  2703  0480                     l5420:	
  2704                           
  2705                           ;usb_device.c: 369: }
  2706                           ;usb_device.c: 372: pBDTEntryIn[0] = (volatile BDT_ENTRY*)&BDT[2];
  2707  0480  3028               	movlw	40
  2708  0481  00E0               	movwf	??_USBDeviceInit^(0+256)
  2709  0482  0860               	movf	??_USBDeviceInit^(0+256),w
  2710  0483  0023               	movlb	3	; select bank3
  2711  0484  00B5               	movwf	_pBDTEntryIn^(0+384)
  2712                           
  2713                           ;usb_device.c: 374: UEP0 = 0x06|0x10;
  2714  0485  3016               	movlw	22
  2715  0486  003D               	movlb	29	; select bank29
  2716  0487  0098               	movwf	24	;volatile
  2717                           
  2718                           ;usb_device.c: 376: BDT[0].ADR = (((uint16_t)(&SetupPkt)) & 0x7FFF);
  2719  0488  3000               	movlw	0
  2720  0489  0020               	movlb	0	; select bank0
  2721  048A  00A3               	movwf	35	;volatile
  2722  048B  3050               	movlw	80
  2723  048C  00A2               	movwf	34	;volatile
  2724                           
  2725                           ;usb_device.c: 377: BDT[0].CNT = 8;
  2726  048D  3008               	movlw	8
  2727  048E  00A1               	movwf	33	;volatile
  2728                           
  2729                           ;usb_device.c: 378: BDT[0].STAT.Val = 0x00|0x04;
  2730  048F  3004               	movlw	4
  2731  0490  0022               	movlb	2	; select bank2
  2732  0491  00E0               	movwf	??_USBDeviceInit^(0+256)
  2733  0492  0860               	movf	??_USBDeviceInit^(0+256),w
  2734  0493  0020               	movlb	0	; select bank0
  2735  0494  00A0               	movwf	32	;volatile
  2736                           
  2737                           ;usb_device.c: 379: BDT[0].STAT.Val |= 0x80;
  2738  0495  17A0               	bsf	32,7	;volatile
  2739                           
  2740                           ;usb_device.c: 382: USBActiveConfiguration = 0;
  2741  0496  0023               	movlb	3	; select bank3
  2742  0497  01ED               	clrf	_USBActiveConfiguration^(0+384)	;volatile
  2743                           
  2744                           ;usb_device.c: 384: USB1msTickCount = 0;
  2745  0498  3000               	movlw	0
  2746  0499  00AE               	movwf	(_USB1msTickCount+3)^(0+384)	;volatile
  2747  049A  3000               	movlw	0
  2748  049B  00AD               	movwf	(_USB1msTickCount+2)^(0+384)	;volatile
  2749  049C  3000               	movlw	0
  2750  049D  00AC               	movwf	(_USB1msTickCount+1)^(0+384)	;volatile
  2751  049E  3000               	movlw	0
  2752  049F  00AB               	movwf	_USB1msTickCount^(0+384)	;volatile
  2753                           
  2754                           ;usb_device.c: 385: USBTicksSinceSuspendEnd = 0;
  2755  04A0  01D0               	clrf	_USBTicksSinceSuspendEnd^(0+384)	;volatile
  2756                           
  2757                           ;usb_device.c: 388: USBDeviceState = DETACHED_STATE;
  2758  04A1  01CC               	clrf	_USBDeviceState^(0+384)	;volatile
  2759  04A2  0008               	return
  2760  04A3                     __end_of_USBDeviceInit:	
  2761                           
  2762                           	psect	text2
  2763  08EB                     __ptext2:	
  2764 ;; *************** function _USBDeviceAttach *****************
  2765 ;; Defined at:
  2766 ;;		line 1370 in file "/opt/microchip/mla/framework/usb/src/usb_device.c"
  2767 ;; Parameters:    Size  Location     Type
  2768 ;;		None
  2769 ;; Auto vars:     Size  Location     Type
  2770 ;;		None
  2771 ;; Return value:  Size  Location     Type
  2772 ;;		None               void
  2773 ;; Registers used:
  2774 ;;		wreg, status,2, status,0
  2775 ;; Tracked objects:
  2776 ;;		On entry : 0/0
  2777 ;;		On exit  : 0/0
  2778 ;;		Unchanged: 0/0
  2779 ;; Data sizes:     COMMON  BANK0h   BANK1   BANK2   BANK3   BANK4   BANK5   BANK6   BANK7   BANK8   BANK9  BANK10  BANK1
      +1  BANK12
  2780 ;;      Params:         0       0       0       0       0       0       0       0       0       0       0       0       
      +0       0
  2781 ;;      Locals:         0       0       0       0       0       0       0       0       0       0       0       0       
      +0       0
  2782 ;;      Temps:          0       0       0       1       0       0       0       0       0       0       0       0       
      +0       0
  2783 ;;      Totals:         0       0       0       1       0       0       0       0       0       0       0       0       
      +0       0
  2784 ;;Total ram usage:        1 bytes
  2785 ;; Hardware stack levels used:    1
  2786 ;; Hardware stack levels required when called:   11
  2787 ;; This function calls:
  2788 ;;		Nothing
  2789 ;; This function is called by:
  2790 ;;		_main
  2791 ;; This function uses a non-reentrant model
  2792 ;;
  2793                           
  2794                           
  2795                           ;psect for function _USBDeviceAttach
  2796  08EB                     _USBDeviceAttach:	
  2797                           
  2798                           ;usb_device.c: 1374: {
  2799                           ;usb_device.c: 1375: if(1 == 1)
  2800                           
  2801                           ;incstack = 0
  2802                           ; Regs used in _USBDeviceAttach: [wreg+status,2+status,0]
  2803  08EB  0023               	movlb	3	; select bank3
  2804  08EC  084C               	movf	_USBDeviceState^(0+384),w	;volatile
  2805  08ED  1D03               	btfss	3,2
  2806  08EE  0008               	return
  2807                           
  2808                           ;usb_device.c: 1376: {
  2809                           ;usb_device.c: 1378: UCON = 0;
  2810  08EF  003D               	movlb	29	; select bank29
  2811  08F0  018E               	clrf	14	;volatile
  2812                           
  2813                           ;usb_device.c: 1381: UIE = 0;
  2814  08F1  0192               	clrf	18	;volatile
  2815                           
  2816                           ;usb_device.c: 1385: { UCFG = 0x10 | 0x00 | 0x04 | 0x02; UEIE = 0x9F; UIE = 0x39 | 0x40 
      +                          | 0x02; };
  2817  08F2  3016               	movlw	22
  2818  08F3  0091               	movwf	17	;volatile
  2819  08F4  309F               	movlw	159
  2820  08F5  0097               	movwf	23	;volatile
  2821  08F6  307B               	movlw	123
  2822  08F7  0092               	movwf	18	;volatile
  2823                           
  2824                           ;usb_device.c: 1387: {PIE2bits.USBIE = 1;INTCONbits.PEIE = 1; INTCONbits.GIE = 1;};
  2825  08F8  0021               	movlb	1	; select bank1
  2826  08F9  1512               	bsf	18,2	;volatile
  2827  08FA  170B               	bsf	11,6	;volatile
  2828  08FB  178B               	bsf	11,7	;volatile
  2829  08FC                     l316:	
  2830                           ;usb_device.c: 1390: while(!UCONbits.USBEN){UCONbits.USBEN = 1;}
  2831                           
  2832  08FC  003D               	movlb	29	; select bank29
  2833  08FD  198E               	btfsc	14,3	;volatile
  2834  08FE  2901               	goto	l5550
  2835  08FF  158E               	bsf	14,3	;volatile
  2836  0900  28FC               	goto	l316
  2837  0901                     l5550:	
  2838                           
  2839                           ;usb_device.c: 1393: USBDeviceState = ATTACHED_STATE;
  2840  0901  3001               	movlw	1
  2841  0902  0022               	movlb	2	; select bank2
  2842  0903  00E0               	movwf	??_USBDeviceAttach^(0+256)
  2843  0904  0860               	movf	??_USBDeviceAttach^(0+256),w
  2844  0905  0023               	movlb	3	; select bank3
  2845  0906  00CC               	movwf	_USBDeviceState^(0+384)	;volatile
  2846  0907  0008               	return
  2847  0908                     __end_of_USBDeviceAttach:	
  2848                           
  2849                           	psect	text3
  2850  0888                     __ptext3:	
  2851 ;; *************** function _SYSTEM_Initialize *****************
  2852 ;; Defined at:
  2853 ;;		line 86 in file "system.c"
  2854 ;; Parameters:    Size  Location     Type
  2855 ;;  state           1    wreg     enum E2448
  2856 ;; Auto vars:     Size  Location     Type
  2857 ;;  state           1    0[BANK2 ] enum E2448
  2858 ;; Return value:  Size  Location     Type
  2859 ;;		None               void
  2860 ;; Registers used:
  2861 ;;		wreg, fsr0l, fsr0h, status,2, status,0
  2862 ;; Tracked objects:
  2863 ;;		On entry : 0/0
  2864 ;;		On exit  : 0/0
  2865 ;;		Unchanged: 0/0
  2866 ;; Data sizes:     COMMON  BANK0h   BANK1   BANK2   BANK3   BANK4   BANK5   BANK6   BANK7   BANK8   BANK9  BANK10  BANK1
      +1  BANK12
  2867 ;;      Params:         0       0       0       0       0       0       0       0       0       0       0       0       
      +0       0
  2868 ;;      Locals:         0       0       0       1       0       0       0       0       0       0       0       0       
      +0       0
  2869 ;;      Temps:          0       0       0       0       0       0       0       0       0       0       0       0       
      +0       0
  2870 ;;      Totals:         0       0       0       1       0       0       0       0       0       0       0       0       
      +0       0
  2871 ;;Total ram usage:        1 bytes
  2872 ;; Hardware stack levels used:    1
  2873 ;; Hardware stack levels required when called:   11
  2874 ;; This function calls:
  2875 ;;		Nothing
  2876 ;; This function is called by:
  2877 ;;		_main
  2878 ;; This function uses a non-reentrant model
  2879 ;;
  2880                           
  2881                           
  2882                           ;psect for function _SYSTEM_Initialize
  2883  0888                     _SYSTEM_Initialize:	
  2884                           
  2885                           ;incstack = 0
  2886                           ; Regs used in _SYSTEM_Initialize: [wreg-fsr0h+status,2+status,0]
  2887                           ;SYSTEM_Initialize@state stored from wreg
  2888  0888  0022               	movlb	2	; select bank2
  2889  0889  00E0               	movwf	SYSTEM_Initialize@state^(0+256)
  2890                           
  2891                           ;system.c: 88: switch(state)
  2892  088A  2892               	goto	l5558
  2893  088B                     l5554:	
  2894                           ;system.c: 89: {
  2895                           ;system.c: 90: case SYSTEM_STATE_USB_START:
  2896                           
  2897                           
  2898                           ;system.c: 94: OSCCON = 0xFC;
  2899  088B  30FC               	movlw	252
  2900  088C  0021               	movlb	1	; select bank1
  2901  088D  0099               	movwf	25	;volatile
  2902                           
  2903                           ;system.c: 95: ACTCON = 0x90;
  2904  088E  3090               	movlw	144
  2905  088F  0027               	movlb	7	; select bank7
  2906  0890  009B               	movwf	27	;volatile
  2907                           
  2908                           ;system.c: 104: }
  2909                           
  2910                           ;system.c: 103: break;
  2911                           
  2912                           ;system.c: 102: case SYSTEM_STATE_USB_RESUME:
  2913                           
  2914                           ;system.c: 100: break;
  2915                           
  2916                           ;system.c: 99: case SYSTEM_STATE_USB_SUSPEND:
  2917                           
  2918                           ;system.c: 97: break;
  2919  0891  0008               	return
  2920  0892                     l5558:	
  2921  0892  0022               	movlb	2	; select bank2
  2922  0893  0860               	movf	SYSTEM_Initialize@state^(0+256),w
  2923                           
  2924                           ; Switch size 1, requested type "space"
  2925                           ; Number of cases is 3, Range of values is 0 to 2
  2926                           ; switch strategies available:
  2927                           ; Name         Instructions Cycles
  2928                           ; simple_byte           10     6 (average)
  2929                           ; direct_byte           12     6 (fixed)
  2930                           ; jumptable            260     6 (fixed)
  2931                           ;	Chosen strategy is simple_byte
  2932  0894  3A00               	xorlw	0	; case 0
  2933  0895  1903               	skipnz
  2934  0896  288B               	goto	l5554
  2935  0897  3A01               	xorlw	1	; case 1
  2936  0898  1903               	skipnz
  2937  0899  289E               	goto	l703
  2938  089A  3A03               	xorlw	3	; case 2
  2939  089B  1903               	skipnz
  2940  089C  289E               	goto	l703
  2941  089D  289E               	goto	l703
  2942  089E                     l703:	
  2943  089E  0008               	return
  2944  089F                     __end_of_SYSTEM_Initialize:	
  2945                           
  2946                           	psect	text4
  2947  0156                     __ptext4:	
  2948 ;; *************** function _APP_DeviceCDCBasicDemoTasks *****************
  2949 ;; Defined at:
  2950 ;;		line 90 in file "app_device_cdc_basic.c"
  2951 ;; Parameters:    Size  Location     Type
  2952 ;;		None
  2953 ;; Auto vars:     Size  Location     Type
  2954 ;;  number          2    1[BANK4 ] int 
  2955 ;;  i               1    3[BANK4 ] unsigned char 
  2956 ;;  numBytesRead    1    0[BANK4 ] unsigned char 
  2957 ;; Return value:  Size  Location     Type
  2958 ;;		None               void
  2959 ;; Registers used:
  2960 ;;		wreg, fsr1l, fsr1h, status,2, status,0, pclath, cstack
  2961 ;; Tracked objects:
  2962 ;;		On entry : 0/0
  2963 ;;		On exit  : 0/0
  2964 ;;		Unchanged: 0/0
  2965 ;; Data sizes:     COMMON  BANK0h   BANK1   BANK2   BANK3   BANK4   BANK5   BANK6   BANK7   BANK8   BANK9  BANK10  BANK1
      +1  BANK12
  2966 ;;      Params:         0       0       0       0       0       0       0       0       0       0       0       0       
      +0       0
  2967 ;;      Locals:         0       0       0       0       0       4       0       0       0       0       0       0       
      +0       0
  2968 ;;      Temps:          0       0       0       2       0       0       0       0       0       0       0       0       
      +0       0
  2969 ;;      Totals:         0       0       0       2       0       4       0       0       0       0       0       0       
      +0       0
  2970 ;;Total ram usage:        6 bytes
  2971 ;; Hardware stack levels used:    1
  2972 ;; Hardware stack levels required when called:   13
  2973 ;; This function calls:
  2974 ;;		_CDCTxService
  2975 ;;		_atoi
  2976 ;;		_getsUSBUSART
  2977 ;;		_putrsUSBUSART
  2978 ;; This function is called by:
  2979 ;;		_main
  2980 ;; This function uses a non-reentrant model
  2981 ;;
  2982                           
  2983                           
  2984                           ;psect for function _APP_DeviceCDCBasicDemoTasks
  2985  0156                     _APP_DeviceCDCBasicDemoTasks:	
  2986                           
  2987                           ;app_device_cdc_basic.c: 92: static uint8_t msg_buf_idx = 0;
  2988                           ;app_device_cdc_basic.c: 93: static bool msg_done = 0;
  2989                           ;app_device_cdc_basic.c: 95: static char msg_type;
  2990                           ;app_device_cdc_basic.c: 101: if( (cdc_trf_state == 0) == 1)
  2991                           
  2992                           ;incstack = 0
  2993                           ; Regs used in _APP_DeviceCDCBasicDemoTasks: [wreg+fsr1l+fsr1h+status,2+status,0+pclath+
      +                          cstack]
  2994  0156  0023               	movlb	3	; select bank3
  2995  0157  0854               	movf	_cdc_trf_state^(0+384),w
  2996  0158  1D03               	btfss	3,2
  2997  0159  2A3E               	goto	l5628
  2998                           
  2999                           ;app_device_cdc_basic.c: 102: {
  3000                           ;app_device_cdc_basic.c: 103: uint8_t i;
  3001                           ;app_device_cdc_basic.c: 104: uint8_t numBytesRead;
  3002                           ;app_device_cdc_basic.c: 106: numBytesRead = getsUSBUSART(readBuffer, sizeof(readBuffer)
      +                          );
  3003  015A  3040               	movlw	64
  3004  015B  0022               	movlb	2	; select bank2
  3005  015C  00EE               	movwf	??_APP_DeviceCDCBasicDemoTasks^(0+256)
  3006  015D  086E               	movf	??_APP_DeviceCDCBasicDemoTasks^(0+256),w
  3007  015E  00E8               	movwf	getsUSBUSART@len^(0+256)
  3008  015F  30A0               	movlw	(low (_readBuffer| (0+512)))& (0+255)
  3009  0160  318C  2480  3181   	fcall	_getsUSBUSART
  3010  0163  0022               	movlb	2	; select bank2
  3011  0164  00EF               	movwf	(??_APP_DeviceCDCBasicDemoTasks+1)^(0+256)
  3012  0165  086F               	movf	(??_APP_DeviceCDCBasicDemoTasks+1)^(0+256),w
  3013  0166  0024               	movlb	4	; select bank4
  3014  0167  00D0               	movwf	APP_DeviceCDCBasicDemoTasks@numBytesRead^(0+512)
  3015                           
  3016                           ;app_device_cdc_basic.c: 109: for(i=0; i<numBytesRead; i++)
  3017  0168  01D3               	clrf	APP_DeviceCDCBasicDemoTasks@i^(0+512)
  3018  0169  29CB               	goto	l5600
  3019  016A                     l5576:	
  3020                           ;app_device_cdc_basic.c: 117: }
  3021                           
  3022                           ;app_device_cdc_basic.c: 116: break;
  3023                           
  3024                           
  3025                           ;app_device_cdc_basic.c: 118: else
  3026                           ;app_device_cdc_basic.c: 119: {
  3027                           ;app_device_cdc_basic.c: 120: if(readBuffer[i] == '\r' || readBuffer[i] == '\n')
  3028  016A  0024               	movlb	4	; select bank4
  3029  016B  0853               	movf	APP_DeviceCDCBasicDemoTasks@i^(0+512),w
  3030  016C  3EA0               	addlw	(low (_readBuffer| (0+512)))& (0+255)
  3031  016D  0086               	movwf	6
  3032  016E  3002               	movlw	2	; select bank5/6
  3033  016F  0087               	movwf	7
  3034  0170  300D               	movlw	13
  3035  0171  0601               	xorwf	1,w
  3036  0172  1903               	btfsc	3,2
  3037  0173  297D               	goto	l5580
  3038  0174  0853               	movf	APP_DeviceCDCBasicDemoTasks@i^(0+512),w
  3039  0175  3EA0               	addlw	(low (_readBuffer| (0+512)))& (0+255)
  3040  0176  0086               	movwf	6
  3041  0177  3002               	movlw	2	; select bank5/6
  3042  0178  0087               	movwf	7
  3043  0179  300A               	movlw	10
  3044  017A  0601               	xorwf	1,w
  3045  017B  1D03               	btfss	3,2
  3046  017C  2987               	goto	l5584
  3047  017D                     l5580:	
  3048                           
  3049                           ;app_device_cdc_basic.c: 121: {
  3050                           ;app_device_cdc_basic.c: 122: msg_buffer[msg_buf_idx] = 0;
  3051  017D  0023               	movlb	3	; select bank3
  3052  017E  0841               	movf	APP_DeviceCDCBasicDemoTasks@msg_buf_idx^(0+384),w
  3053  017F  3EDC               	addlw	(low (_msg_buffer| (0+256)))& (0+255)
  3054  0180  0086               	movwf	6
  3055  0181  3001               	movlw	1	; select bank3/4
  3056  0182  0087               	movwf	7
  3057  0183  0181               	clrf	1
  3058                           
  3059                           ;app_device_cdc_basic.c: 123: msg_done = 1;
  3060  0184  01C2               	clrf	APP_DeviceCDCBasicDemoTasks@msg_done^(0+384)
  3061  0185  0AC2               	incf	APP_DeviceCDCBasicDemoTasks@msg_done^(0+384),f
  3062                           
  3063                           ;app_device_cdc_basic.c: 124: break;
  3064  0186  29DB               	goto	l5602
  3065  0187                     l5584:	
  3066                           
  3067                           ;app_device_cdc_basic.c: 125: }
  3068                           ;app_device_cdc_basic.c: 128: if(readBuffer[i] >= '0' && readBuffer[i] <= '9')
  3069  0187  0024               	movlb	4	; select bank4
  3070  0188  0853               	movf	APP_DeviceCDCBasicDemoTasks@i^(0+512),w
  3071  0189  3EA0               	addlw	(low (_readBuffer| (0+512)))& (0+255)
  3072  018A  0086               	movwf	6
  3073  018B  3002               	movlw	2	; select bank5/6
  3074  018C  0087               	movwf	7
  3075  018D  3030               	movlw	48
  3076  018E  0201               	subwf	1,w
  3077  018F  1C03               	skipc
  3078  0190  29B1               	goto	l5592
  3079  0191  0853               	movf	APP_DeviceCDCBasicDemoTasks@i^(0+512),w
  3080  0192  3EA0               	addlw	(low (_readBuffer| (0+512)))& (0+255)
  3081  0193  0086               	movwf	6
  3082  0194  3002               	movlw	2	; select bank5/6
  3083  0195  0087               	movwf	7
  3084  0196  303A               	movlw	58
  3085  0197  0201               	subwf	1,w
  3086  0198  1803               	skipnc
  3087  0199  29B1               	goto	l5592
  3088                           
  3089                           ;app_device_cdc_basic.c: 129: {
  3090                           ;app_device_cdc_basic.c: 130: msg_buffer[msg_buf_idx] = readBuffer[i];
  3091  019A  0853               	movf	APP_DeviceCDCBasicDemoTasks@i^(0+512),w
  3092  019B  3EA0               	addlw	(low (_readBuffer| (0+512)))& (0+255)
  3093  019C  0086               	movwf	6
  3094  019D  3002               	movlw	2	; select bank5/6
  3095  019E  0087               	movwf	7
  3096  019F  0801               	movf	1,w
  3097  01A0  0022               	movlb	2	; select bank2
  3098  01A1  00EE               	movwf	??_APP_DeviceCDCBasicDemoTasks^(0+256)
  3099  01A2  0023               	movlb	3	; select bank3
  3100  01A3  0841               	movf	APP_DeviceCDCBasicDemoTasks@msg_buf_idx^(0+384),w
  3101  01A4  3EDC               	addlw	(low (_msg_buffer| (0+256)))& (0+255)
  3102  01A5  0086               	movwf	6
  3103  01A6  3001               	movlw	1	; select bank3/4
  3104  01A7  0087               	movwf	7
  3105  01A8  0022               	movlb	2	; select bank2
  3106  01A9  086E               	movf	??_APP_DeviceCDCBasicDemoTasks^(0+256),w
  3107  01AA  0081               	movwf	1
  3108                           
  3109                           ;app_device_cdc_basic.c: 131: msg_buf_idx++;
  3110  01AB  3001               	movlw	1
  3111  01AC  00EE               	movwf	??_APP_DeviceCDCBasicDemoTasks^(0+256)
  3112  01AD  086E               	movf	??_APP_DeviceCDCBasicDemoTasks^(0+256),w
  3113  01AE  0023               	movlb	3	; select bank3
  3114  01AF  07C1               	addwf	APP_DeviceCDCBasicDemoTasks@msg_buf_idx^(0+384),f
  3115                           
  3116                           ;app_device_cdc_basic.c: 132: }
  3117  01B0  29C4               	goto	l657
  3118  01B1                     l5592:	
  3119                           
  3120                           ;app_device_cdc_basic.c: 133: else
  3121                           ;app_device_cdc_basic.c: 134: {
  3122                           ;app_device_cdc_basic.c: 135: msg_type = readBuffer[i];
  3123  01B1  0024               	movlb	4	; select bank4
  3124  01B2  0853               	movf	APP_DeviceCDCBasicDemoTasks@i^(0+512),w
  3125  01B3  3EA0               	addlw	(low (_readBuffer| (0+512)))& (0+255)
  3126  01B4  0086               	movwf	6
  3127  01B5  3002               	movlw	2	; select bank5/6
  3128  01B6  0087               	movwf	7
  3129  01B7  0801               	movf	1,w
  3130  01B8  0022               	movlb	2	; select bank2
  3131  01B9  00EE               	movwf	??_APP_DeviceCDCBasicDemoTasks^(0+256)
  3132  01BA  086E               	movf	??_APP_DeviceCDCBasicDemoTasks^(0+256),w
  3133  01BB  0023               	movlb	3	; select bank3
  3134  01BC  00C3               	movwf	APP_DeviceCDCBasicDemoTasks@msg_type^(0+384)
  3135                           
  3136                           ;app_device_cdc_basic.c: 136: msg_buf_idx = 0;
  3137  01BD  01C1               	clrf	APP_DeviceCDCBasicDemoTasks@msg_buf_idx^(0+384)
  3138                           
  3139                           ;app_device_cdc_basic.c: 137: msg_buffer[msg_buf_idx] = 0;
  3140  01BE  0841               	movf	APP_DeviceCDCBasicDemoTasks@msg_buf_idx^(0+384),w
  3141  01BF  3EDC               	addlw	(low (_msg_buffer| (0+256)))& (0+255)
  3142  01C0  0086               	movwf	6
  3143  01C1  3001               	movlw	1	; select bank3/4
  3144  01C2  0087               	movwf	7
  3145  01C3  0181               	clrf	1
  3146  01C4                     l657:	
  3147                           
  3148                           ;app_device_cdc_basic.c: 139: }
  3149                           ;app_device_cdc_basic.c: 141: msg_done = 0;
  3150  01C4  01C2               	clrf	APP_DeviceCDCBasicDemoTasks@msg_done^(0+384)
  3151  01C5  3001               	movlw	1
  3152  01C6  0022               	movlb	2	; select bank2
  3153  01C7  00EE               	movwf	??_APP_DeviceCDCBasicDemoTasks^(0+256)
  3154  01C8  086E               	movf	??_APP_DeviceCDCBasicDemoTasks^(0+256),w
  3155  01C9  0024               	movlb	4	; select bank4
  3156  01CA  07D3               	addwf	APP_DeviceCDCBasicDemoTasks@i^(0+512),f
  3157  01CB                     l5600:	
  3158  01CB  0850               	movf	APP_DeviceCDCBasicDemoTasks@numBytesRead^(0+512),w
  3159  01CC  0253               	subwf	APP_DeviceCDCBasicDemoTasks@i^(0+512),w
  3160  01CD  1803               	btfsc	3,0
  3161  01CE  29DB               	goto	l5602
  3162                           
  3163                           ;app_device_cdc_basic.c: 110: {
  3164                           ;app_device_cdc_basic.c: 111: if(msg_buf_idx == 8)
  3165  01CF  3008               	movlw	8
  3166  01D0  0023               	movlb	3	; select bank3
  3167  01D1  0641               	xorwf	APP_DeviceCDCBasicDemoTasks@msg_buf_idx^(0+384),w
  3168  01D2  1D03               	btfss	3,2
  3169  01D3  296A               	goto	l5576
  3170                           
  3171                           ;app_device_cdc_basic.c: 112: {
  3172                           ;app_device_cdc_basic.c: 113: putrsUSBUSART(buttonMessage);
  3173  01D4  302B               	movlw	(low (_buttonMessage| (0+512)))& (0+255)
  3174  01D5  3189  21D9  3181   	fcall	_putrsUSBUSART
  3175                           
  3176                           ;app_device_cdc_basic.c: 114: msg_buf_idx = 0;
  3177  01D8  0023               	movlb	3	; select bank3
  3178  01D9  01C1               	clrf	APP_DeviceCDCBasicDemoTasks@msg_buf_idx^(0+384)
  3179                           
  3180                           ;app_device_cdc_basic.c: 115: msg_buffer[0] = 0;
  3181  01DA  01DC               	clrf	_msg_buffer^(0+384)
  3182  01DB                     l5602:	
  3183                           
  3184                           ;app_device_cdc_basic.c: 144: }
  3185                           ;app_device_cdc_basic.c: 145: }
  3186                           ;app_device_cdc_basic.c: 147: if(numBytesRead > 0 && msg_done == 1 && msg_buf_idx > 0)
  3187  01DB  0024               	movlb	4	; select bank4
  3188  01DC  0850               	movf	APP_DeviceCDCBasicDemoTasks@numBytesRead^(0+512),w
  3189  01DD  1903               	btfsc	3,2
  3190  01DE  2A3E               	goto	l5628
  3191  01DF  0023               	movlb	3	; select bank3
  3192  01E0  0342               	decf	APP_DeviceCDCBasicDemoTasks@msg_done^(0+384),w
  3193  01E1  1D03               	btfss	3,2
  3194  01E2  2A3E               	goto	l5628
  3195  01E3  0841               	movf	APP_DeviceCDCBasicDemoTasks@msg_buf_idx^(0+384),w
  3196  01E4  1903               	btfsc	3,2
  3197  01E5  2A3E               	goto	l5628
  3198                           
  3199                           ;app_device_cdc_basic.c: 148: {
  3200                           ;app_device_cdc_basic.c: 153: int number;
  3201                           ;app_device_cdc_basic.c: 155: number = atoi(msg_buffer);
  3202  01E6  30DC               	movlw	(low (_msg_buffer| (0+256)))& (0+255)
  3203  01E7  318F  2710  3181   	fcall	_atoi
  3204  01EA  0022               	movlb	2	; select bank2
  3205  01EB  0867               	movf	(?_atoi+1)^(0+256),w
  3206  01EC  0024               	movlb	4	; select bank4
  3207  01ED  00D2               	movwf	(APP_DeviceCDCBasicDemoTasks@number+1)^(0+512)
  3208  01EE  0022               	movlb	2	; select bank2
  3209  01EF  0866               	movf	?_atoi^(0+256),w
  3210  01F0  0024               	movlb	4	; select bank4
  3211  01F1  00D1               	movwf	APP_DeviceCDCBasicDemoTasks@number^(0+512)
  3212                           
  3213                           ;app_device_cdc_basic.c: 159: if(msg_type == 'c' && number > 0 && number < 128)
  3214  01F2  3063               	movlw	99
  3215  01F3  0023               	movlb	3	; select bank3
  3216  01F4  0643               	xorwf	APP_DeviceCDCBasicDemoTasks@msg_type^(0+384),w
  3217  01F5  1D03               	btfss	3,2
  3218  01F6  2A17               	goto	l5618
  3219  01F7  0024               	movlb	4	; select bank4
  3220  01F8  0852               	movf	(APP_DeviceCDCBasicDemoTasks@number+1)^(0+512),w
  3221  01F9  3A80               	xorlw	128
  3222  01FA  0022               	movlb	2	; select bank2
  3223  01FB  00EE               	movwf	??_APP_DeviceCDCBasicDemoTasks^(0+256)
  3224  01FC  3080               	movlw	128
  3225  01FD  026E               	subwf	??_APP_DeviceCDCBasicDemoTasks^(0+256),w
  3226  01FE  1D03               	skipz
  3227  01FF  2A03               	goto	u5985
  3228  0200  3001               	movlw	1
  3229  0201  0024               	movlb	4	; select bank4
  3230  0202  0251               	subwf	APP_DeviceCDCBasicDemoTasks@number^(0+512),w
  3231  0203                     u5985:	
  3232  0203  1C03               	skipc
  3233  0204  2A17               	goto	l5618
  3234  0205  0024               	movlb	4	; select bank4
  3235  0206  0852               	movf	(APP_DeviceCDCBasicDemoTasks@number+1)^(0+512),w
  3236  0207  3A80               	xorlw	128
  3237  0208  0022               	movlb	2	; select bank2
  3238  0209  00EE               	movwf	??_APP_DeviceCDCBasicDemoTasks^(0+256)
  3239  020A  3080               	movlw	128
  3240  020B  026E               	subwf	??_APP_DeviceCDCBasicDemoTasks^(0+256),w
  3241  020C  1D03               	skipz
  3242  020D  2A11               	goto	u5995
  3243  020E  3080               	movlw	128
  3244  020F  0024               	movlb	4	; select bank4
  3245  0210  0251               	subwf	APP_DeviceCDCBasicDemoTasks@number^(0+512),w
  3246  0211                     u5995:	
  3247  0211  1803               	skipnc
  3248  0212  2A17               	goto	l5618
  3249                           
  3250                           ;app_device_cdc_basic.c: 160: {
  3251                           ;app_device_cdc_basic.c: 161: PWM1DCH = (uint8_t)number;
  3252  0213  0024               	movlb	4	; select bank4
  3253  0214  0851               	movf	APP_DeviceCDCBasicDemoTasks@number^(0+512),w
  3254  0215  002C               	movlb	12	; select bank12
  3255  0216  0092               	movwf	18	;volatile
  3256  0217                     l5618:	
  3257                           
  3258                           ;app_device_cdc_basic.c: 162: }
  3259                           ;app_device_cdc_basic.c: 164: if(msg_type == 'm' && number > 0 && number < 128)
  3260  0217  306D               	movlw	109
  3261  0218  0023               	movlb	3	; select bank3
  3262  0219  0643               	xorwf	APP_DeviceCDCBasicDemoTasks@msg_type^(0+384),w
  3263  021A  1D03               	btfss	3,2
  3264  021B  2A3C               	goto	l5626
  3265  021C  0024               	movlb	4	; select bank4
  3266  021D  0852               	movf	(APP_DeviceCDCBasicDemoTasks@number+1)^(0+512),w
  3267  021E  3A80               	xorlw	128
  3268  021F  0022               	movlb	2	; select bank2
  3269  0220  00EE               	movwf	??_APP_DeviceCDCBasicDemoTasks^(0+256)
  3270  0221  3080               	movlw	128
  3271  0222  026E               	subwf	??_APP_DeviceCDCBasicDemoTasks^(0+256),w
  3272  0223  1D03               	skipz
  3273  0224  2A28               	goto	u6015
  3274  0225  3001               	movlw	1
  3275  0226  0024               	movlb	4	; select bank4
  3276  0227  0251               	subwf	APP_DeviceCDCBasicDemoTasks@number^(0+512),w
  3277  0228                     u6015:	
  3278  0228  1C03               	skipc
  3279  0229  2A3C               	goto	l5626
  3280  022A  0024               	movlb	4	; select bank4
  3281  022B  0852               	movf	(APP_DeviceCDCBasicDemoTasks@number+1)^(0+512),w
  3282  022C  3A80               	xorlw	128
  3283  022D  0022               	movlb	2	; select bank2
  3284  022E  00EE               	movwf	??_APP_DeviceCDCBasicDemoTasks^(0+256)
  3285  022F  3080               	movlw	128
  3286  0230  026E               	subwf	??_APP_DeviceCDCBasicDemoTasks^(0+256),w
  3287  0231  1D03               	skipz
  3288  0232  2A36               	goto	u6025
  3289  0233  3080               	movlw	128
  3290  0234  0024               	movlb	4	; select bank4
  3291  0235  0251               	subwf	APP_DeviceCDCBasicDemoTasks@number^(0+512),w
  3292  0236                     u6025:	
  3293  0236  1803               	skipnc
  3294  0237  2A3C               	goto	l5626
  3295                           
  3296                           ;app_device_cdc_basic.c: 165: {
  3297                           ;app_device_cdc_basic.c: 166: PWM2DCH = (uint8_t)number;
  3298  0238  0024               	movlb	4	; select bank4
  3299  0239  0851               	movf	APP_DeviceCDCBasicDemoTasks@number^(0+512),w
  3300  023A  002C               	movlb	12	; select bank12
  3301  023B  0095               	movwf	21	;volatile
  3302  023C                     l5626:	
  3303                           
  3304                           ;app_device_cdc_basic.c: 167: }
  3305                           ;app_device_cdc_basic.c: 170: msg_buf_idx = 0;
  3306  023C  0023               	movlb	3	; select bank3
  3307  023D  01C1               	clrf	APP_DeviceCDCBasicDemoTasks@msg_buf_idx^(0+384)
  3308  023E                     l5628:	
  3309                           
  3310                           ;app_device_cdc_basic.c: 172: }
  3311                           ;app_device_cdc_basic.c: 173: }
  3312                           ;app_device_cdc_basic.c: 175: CDCTxService();
  3313  023E  3183  2328         	fcall	_CDCTxService
  3314  0240  0008               	return
  3315  0241                     __end_of_APP_DeviceCDCBasicDemoTasks:	
  3316                           
  3317                           	psect	text5
  3318  09D9                     __ptext5:	
  3319 ;; *************** function _putrsUSBUSART *****************
  3320 ;; Defined at:
  3321 ;;		line 726 in file "/opt/microchip/mla/framework/usb/src/usb_device_cdc.c"
  3322 ;; Parameters:    Size  Location     Type
  3323 ;;  data            1    wreg     PTR const unsigned char 
  3324 ;;		 -> buttonMessage(19), 
  3325 ;; Auto vars:     Size  Location     Type
  3326 ;;  data            1    2[BANK2 ] PTR const unsigned char 
  3327 ;;		 -> buttonMessage(19), 
  3328 ;;  len             1    3[BANK2 ] unsigned char 
  3329 ;;  pData           1    1[BANK2 ] PTR const unsigned char 
  3330 ;;		 -> buttonMessage(19), 
  3331 ;; Return value:  Size  Location     Type
  3332 ;;		None               void
  3333 ;; Registers used:
  3334 ;;		wreg, fsr1l, fsr1h, status,2, status,0
  3335 ;; Tracked objects:
  3336 ;;		On entry : 0/0
  3337 ;;		On exit  : 0/0
  3338 ;;		Unchanged: 0/0
  3339 ;; Data sizes:     COMMON  BANK0h   BANK1   BANK2   BANK3   BANK4   BANK5   BANK6   BANK7   BANK8   BANK9  BANK10  BANK1
      +1  BANK12
  3340 ;;      Params:         0       0       0       0       0       0       0       0       0       0       0       0       
      +0       0
  3341 ;;      Locals:         0       0       0       3       0       0       0       0       0       0       0       0       
      +0       0
  3342 ;;      Temps:          0       0       0       1       0       0       0       0       0       0       0       0       
      +0       0
  3343 ;;      Totals:         0       0       0       4       0       0       0       0       0       0       0       0       
      +0       0
  3344 ;;Total ram usage:        4 bytes
  3345 ;; Hardware stack levels used:    1
  3346 ;; Hardware stack levels required when called:   11
  3347 ;; This function calls:
  3348 ;;		Nothing
  3349 ;; This function is called by:
  3350 ;;		_APP_DeviceCDCBasicDemoTasks
  3351 ;; This function uses a non-reentrant model
  3352 ;;
  3353                           
  3354                           
  3355                           ;psect for function _putrsUSBUSART
  3356  09D9                     _putrsUSBUSART:	
  3357                           
  3358                           ;incstack = 0
  3359                           ; Regs used in _putrsUSBUSART: [wreg+fsr1l+fsr1h+status,2+status,0]
  3360                           ;putrsUSBUSART@data stored from wreg
  3361  09D9  0022               	movlb	2	; select bank2
  3362  09DA  00E2               	movwf	putrsUSBUSART@data^(0+256)
  3363                           
  3364                           ;usb_device_cdc.c: 728: uint8_t len;
  3365                           ;usb_device_cdc.c: 729: const const char *pData;
  3366                           ;usb_device_cdc.c: 754: {PIE2bits.USBIE = 0;};
  3367  09DB  0021               	movlb	1	; select bank1
  3368  09DC  1112               	bcf	18,2	;volatile
  3369                           
  3370                           ;usb_device_cdc.c: 755: if(cdc_trf_state != 0)
  3371  09DD  0023               	movlb	3	; select bank3
  3372  09DE  0854               	movf	_cdc_trf_state^(0+384),w
  3373  09DF  1903               	btfsc	3,2
  3374  09E0  29E4               	goto	l5082
  3375                           
  3376                           ;usb_device_cdc.c: 756: {
  3377                           ;usb_device_cdc.c: 757: {PIE2bits.USBIE = 1;};
  3378  09E1  0021               	movlb	1	; select bank1
  3379  09E2  1512               	bsf	18,2	;volatile
  3380                           
  3381                           ;usb_device_cdc.c: 758: return;
  3382  09E3  0008               	return
  3383  09E4                     l5082:	
  3384                           
  3385                           ;usb_device_cdc.c: 759: }
  3386                           ;usb_device_cdc.c: 765: len = 0;
  3387  09E4  0022               	movlb	2	; select bank2
  3388  09E5  01E3               	clrf	putrsUSBUSART@len^(0+256)
  3389                           
  3390                           ;usb_device_cdc.c: 766: pData = data;
  3391  09E6  0862               	movf	putrsUSBUSART@data^(0+256),w
  3392  09E7  00E0               	movwf	??_putrsUSBUSART^(0+256)
  3393  09E8  0860               	movf	??_putrsUSBUSART^(0+256),w
  3394  09E9  00E1               	movwf	putrsUSBUSART@pData^(0+256)
  3395  09EA                     l5086:	
  3396                           ;usb_device_cdc.c: 767: do
  3397                           
  3398                           
  3399                           ;usb_device_cdc.c: 768: {
  3400                           ;usb_device_cdc.c: 769: len++;
  3401  09EA  3001               	movlw	1
  3402  09EB  00E0               	movwf	??_putrsUSBUSART^(0+256)
  3403  09EC  0860               	movf	??_putrsUSBUSART^(0+256),w
  3404  09ED  07E3               	addwf	putrsUSBUSART@len^(0+256),f
  3405                           
  3406                           ;usb_device_cdc.c: 770: if(len == 255) break;
  3407  09EE  0A63               	incf	putrsUSBUSART@len^(0+256),w
  3408  09EF  1903               	btfsc	3,2
  3409  09F0  29F9               	goto	l5094
  3410                           
  3411                           ;usb_device_cdc.c: 771: }while(*pData++);
  3412  09F1  0861               	movf	putrsUSBUSART@pData^(0+256),w
  3413  09F2  0086               	movwf	6
  3414  09F3  3002               	movlw	2	; select bank4/5
  3415  09F4  0087               	movwf	7
  3416  09F5  0AE1               	incf	putrsUSBUSART@pData^(0+256),f
  3417  09F6  0801               	movf	1,w
  3418  09F7  1D03               	btfss	3,2
  3419  09F8  29EA               	goto	l5086
  3420  09F9                     l5094:	
  3421                           
  3422                           ;usb_device_cdc.c: 780: { pCDCSrc.bRom = (const uint8_t*)data; cdc_tx_len = len; cdc_mem
      +                          _type = 0x00; cdc_trf_state = 1; };
  3423  09F9  0862               	movf	putrsUSBUSART@data^(0+256),w
  3424  09FA  00E0               	movwf	??_putrsUSBUSART^(0+256)
  3425  09FB  0860               	movf	??_putrsUSBUSART^(0+256),w
  3426  09FC  0023               	movlb	3	; select bank3
  3427  09FD  00BF               	movwf	_pCDCSrc^(0+384)
  3428  09FE  0022               	movlb	2	; select bank2
  3429  09FF  0863               	movf	putrsUSBUSART@len^(0+256),w
  3430  0A00  00E0               	movwf	??_putrsUSBUSART^(0+256)
  3431  0A01  0860               	movf	??_putrsUSBUSART^(0+256),w
  3432  0A02  0023               	movlb	3	; select bank3
  3433  0A03  00D5               	movwf	_cdc_tx_len^(0+384)
  3434  0A04  01D2               	clrf	_cdc_mem_type^(0+384)
  3435  0A05  01D4               	clrf	_cdc_trf_state^(0+384)
  3436  0A06  0AD4               	incf	_cdc_trf_state^(0+384),f
  3437                           
  3438                           ;usb_device_cdc.c: 781: {PIE2bits.USBIE = 1;};
  3439  0A07  0021               	movlb	1	; select bank1
  3440  0A08  1512               	bsf	18,2	;volatile
  3441  0A09  0008               	return
  3442  0A0A                     __end_of_putrsUSBUSART:	
  3443                           
  3444                           	psect	text6
  3445  0C80                     __ptext6:	
  3446 ;; *************** function _getsUSBUSART *****************
  3447 ;; Defined at:
  3448 ;;		line 485 in file "/opt/microchip/mla/framework/usb/src/usb_device_cdc.c"
  3449 ;; Parameters:    Size  Location     Type
  3450 ;;  buffer          1    wreg     PTR unsigned char 
  3451 ;;		 -> readBuffer(64), 
  3452 ;;  len             1    8[BANK2 ] unsigned char 
  3453 ;; Auto vars:     Size  Location     Type
  3454 ;;  buffer          1   11[BANK2 ] PTR unsigned char 
  3455 ;;		 -> readBuffer(64), 
  3456 ;; Return value:  Size  Location     Type
  3457 ;;                  1    wreg      unsigned char 
  3458 ;; Registers used:
  3459 ;;		wreg, fsr1l, fsr1h, status,2, status,0, pclath, cstack
  3460 ;; Tracked objects:
  3461 ;;		On entry : 0/0
  3462 ;;		On exit  : 0/0
  3463 ;;		Unchanged: 0/0
  3464 ;; Data sizes:     COMMON  BANK0h   BANK1   BANK2   BANK3   BANK4   BANK5   BANK6   BANK7   BANK8   BANK9  BANK10  BANK1
      +1  BANK12
  3465 ;;      Params:         0       0       0       1       0       0       0       0       0       0       0       0       
      +0       0
  3466 ;;      Locals:         0       0       0       1       0       0       0       0       0       0       0       0       
      +0       0
  3467 ;;      Temps:          0       0       0       2       0       0       0       0       0       0       0       0       
      +0       0
  3468 ;;      Totals:         0       0       0       4       0       0       0       0       0       0       0       0       
      +0       0
  3469 ;;Total ram usage:        4 bytes
  3470 ;; Hardware stack levels used:    1
  3471 ;; Hardware stack levels required when called:   12
  3472 ;; This function calls:
  3473 ;;		_USBTransferOnePacket
  3474 ;; This function is called by:
  3475 ;;		_APP_DeviceCDCBasicDemoTasks
  3476 ;; This function uses a non-reentrant model
  3477 ;;
  3478                           
  3479                           
  3480                           ;psect for function _getsUSBUSART
  3481  0C80                     _getsUSBUSART:	
  3482                           
  3483                           ;incstack = 0
  3484                           ; Regs used in _getsUSBUSART: [wreg+fsr1l+fsr1h+status,2+status,0+pclath+cstack]
  3485                           ;getsUSBUSART@buffer stored from wreg
  3486  0C80  0022               	movlb	2	; select bank2
  3487  0C81  00EB               	movwf	getsUSBUSART@buffer^(0+256)
  3488                           
  3489                           ;usb_device_cdc.c: 487: cdc_rx_len = 0;
  3490  0C82  0023               	movlb	3	; select bank3
  3491  0C83  01D3               	clrf	_cdc_rx_len^(0+384)
  3492                           
  3493                           ;usb_device_cdc.c: 489: if(!((CDCDataOutHandle != 0x0000) && ((*(volatile uint8_t*)CDCDa
      +                          taOutHandle & 0x80) != 0x00)))
  3494  0C84  0846               	movf	_CDCDataOutHandle^(0+384),w
  3495  0C85  1903               	btfsc	3,2
  3496  0C86  2C8C               	goto	l5058
  3497  0C87  0846               	movf	_CDCDataOutHandle^(0+384),w
  3498  0C88  0086               	movwf	6
  3499  0C89  0187               	clrf	7
  3500  0C8A  1B81               	btfsc	1,7
  3501  0C8B  2CCE               	goto	l5072
  3502  0C8C                     l5058:	
  3503                           
  3504                           ;usb_device_cdc.c: 490: {
  3505                           ;usb_device_cdc.c: 495: if(len > (((volatile BDT_ENTRY*)CDCDataOutHandle)->CNT))
  3506  0C8C  0A46               	incf	_CDCDataOutHandle^(0+384),w
  3507  0C8D  0086               	movwf	6
  3508  0C8E  0187               	clrf	7
  3509  0C8F  0022               	movlb	2	; select bank2
  3510  0C90  0868               	movf	getsUSBUSART@len^(0+256),w
  3511  0C91  0201               	subwf	1,w
  3512  0C92  1803               	skipnc
  3513  0C93  2C9B               	goto	l5062
  3514                           
  3515                           ;usb_device_cdc.c: 496: len = (((volatile BDT_ENTRY*)CDCDataOutHandle)->CNT);
  3516  0C94  0023               	movlb	3	; select bank3
  3517  0C95  0846               	movf	_CDCDataOutHandle^(0+384),w
  3518  0C96  0086               	movwf	6
  3519  0C97  0187               	clrf	7
  3520  0C98  3F41               	moviw [1]fsr1
  3521  0C99  0022               	movlb	2	; select bank2
  3522  0C9A  00E8               	movwf	getsUSBUSART@len^(0+256)
  3523  0C9B                     l5062:	
  3524                           
  3525                           ;usb_device_cdc.c: 501: for(cdc_rx_len = 0; cdc_rx_len < len; cdc_rx_len++)
  3526  0C9B  0023               	movlb	3	; select bank3
  3527  0C9C  01D3               	clrf	_cdc_rx_len^(0+384)
  3528  0C9D                     l5068:	
  3529  0C9D  0022               	movlb	2	; select bank2
  3530  0C9E  0868               	movf	getsUSBUSART@len^(0+256),w
  3531  0C9F  0023               	movlb	3	; select bank3
  3532  0CA0  0253               	subwf	_cdc_rx_len^(0+384),w
  3533  0CA1  1803               	btfsc	3,0
  3534  0CA2  2CBC               	goto	l5070
  3535                           
  3536                           ;usb_device_cdc.c: 502: buffer[cdc_rx_len] = cdc_data_rx[cdc_rx_len];
  3537  0CA3  0853               	movf	_cdc_rx_len^(0+384),w
  3538  0CA4  3E20               	addlw	32
  3539  0CA5  0086               	movwf	6
  3540  0CA6  3001               	movlw	1	; select bank2/3
  3541  0CA7  0087               	movwf	7
  3542  0CA8  0801               	movf	1,w
  3543  0CA9  0022               	movlb	2	; select bank2
  3544  0CAA  00E9               	movwf	??_getsUSBUSART^(0+256)
  3545  0CAB  0023               	movlb	3	; select bank3
  3546  0CAC  0853               	movf	_cdc_rx_len^(0+384),w
  3547  0CAD  0022               	movlb	2	; select bank2
  3548  0CAE  076B               	addwf	getsUSBUSART@buffer^(0+256),w
  3549  0CAF  00EA               	movwf	(??_getsUSBUSART+1)^(0+256)
  3550  0CB0  086A               	movf	(??_getsUSBUSART+1)^(0+256),w
  3551  0CB1  0086               	movwf	6
  3552  0CB2  3002               	movlw	2	; select bank4/5
  3553  0CB3  0087               	movwf	7
  3554  0CB4  0869               	movf	??_getsUSBUSART^(0+256),w
  3555  0CB5  0081               	movwf	1
  3556  0CB6  3001               	movlw	1
  3557  0CB7  00E9               	movwf	??_getsUSBUSART^(0+256)
  3558  0CB8  0869               	movf	??_getsUSBUSART^(0+256),w
  3559  0CB9  0023               	movlb	3	; select bank3
  3560  0CBA  07D3               	addwf	_cdc_rx_len^(0+384),f
  3561  0CBB  2C9D               	goto	l5068
  3562  0CBC                     l5070:	
  3563                           
  3564                           ;usb_device_cdc.c: 508: CDCDataOutHandle = USBTransferOnePacket(2,0,(uint8_t*)&cdc_data_
      +                          rx,sizeof(cdc_data_rx));
  3565  0CBC  0022               	movlb	2	; select bank2
  3566  0CBD  01E0               	clrf	USBTransferOnePacket@dir^(0+256)
  3567  0CBE  3020               	movlw	32
  3568  0CBF  00E1               	movwf	USBTransferOnePacket@data^(0+256)
  3569  0CC0  3001               	movlw	1
  3570  0CC1  00E2               	movwf	(USBTransferOnePacket@data+1)^(0+256)
  3571  0CC2  3040               	movlw	64
  3572  0CC3  00E9               	movwf	??_getsUSBUSART^(0+256)
  3573  0CC4  0869               	movf	??_getsUSBUSART^(0+256),w
  3574  0CC5  00E3               	movwf	USBTransferOnePacket@len^(0+256)
  3575  0CC6  3002               	movlw	2
  3576  0CC7  318C  2433         	fcall	_USBTransferOnePacket
  3577  0CC9  0022               	movlb	2	; select bank2
  3578  0CCA  00EA               	movwf	(??_getsUSBUSART+1)^(0+256)
  3579  0CCB  086A               	movf	(??_getsUSBUSART+1)^(0+256),w
  3580  0CCC  0023               	movlb	3	; select bank3
  3581  0CCD  00C6               	movwf	_CDCDataOutHandle^(0+384)
  3582  0CCE                     l5072:	
  3583                           
  3584                           ;usb_device_cdc.c: 510: }
  3585                           ;usb_device_cdc.c: 512: return cdc_rx_len;
  3586  0CCE  0853               	movf	_cdc_rx_len^(0+384),w
  3587  0CCF  0008               	return
  3588  0CD0                     __end_of_getsUSBUSART:	
  3589                           
  3590                           	psect	text7
  3591  0F10                     __ptext7:	
  3592 ;; *************** function _atoi *****************
  3593 ;; Defined at:
  3594 ;;		line 5 in file "/opt/microchip/xc8/v1.35/sources/common/atoi.c"
  3595 ;; Parameters:    Size  Location     Type
  3596 ;;  s               1    wreg     PTR const unsigned char 
  3597 ;;		 -> msg_buffer(8), 
  3598 ;; Auto vars:     Size  Location     Type
  3599 ;;  s               1   13[BANK2 ] PTR const unsigned char 
  3600 ;;		 -> msg_buffer(8), 
  3601 ;;  a               2   11[BANK2 ] int 
  3602 ;;  sign            1   10[BANK2 ] unsigned char 
  3603 ;; Return value:  Size  Location     Type
  3604 ;;                  2    6[BANK2 ] int 
  3605 ;; Registers used:
  3606 ;;		wreg, fsr1l, fsr1h, status,2, status,0, pclath, cstack
  3607 ;; Tracked objects:
  3608 ;;		On entry : 0/0
  3609 ;;		On exit  : 0/0
  3610 ;;		Unchanged: 0/0
  3611 ;; Data sizes:     COMMON  BANK0h   BANK1   BANK2   BANK3   BANK4   BANK5   BANK6   BANK7   BANK8   BANK9  BANK10  BANK1
      +1  BANK12
  3612 ;;      Params:         0       0       0       2       0       0       0       0       0       0       0       0       
      +0       0
  3613 ;;      Locals:         0       0       0       4       0       0       0       0       0       0       0       0       
      +0       0
  3614 ;;      Temps:          0       0       0       2       0       0       0       0       0       0       0       0       
      +0       0
  3615 ;;      Totals:         0       0       0       8       0       0       0       0       0       0       0       0       
      +0       0
  3616 ;;Total ram usage:        8 bytes
  3617 ;; Hardware stack levels used:    1
  3618 ;; Hardware stack levels required when called:   12
  3619 ;; This function calls:
  3620 ;;		___wmul
  3621 ;;		_isdigit
  3622 ;; This function is called by:
  3623 ;;		_APP_DeviceCDCBasicDemoTasks
  3624 ;; This function uses a non-reentrant model
  3625 ;;
  3626                           
  3627                           
  3628                           ;psect for function _atoi
  3629  0F10                     _atoi:	
  3630                           
  3631                           ;incstack = 0
  3632                           ; Regs used in _atoi: [wreg+fsr1l+fsr1h+status,2+status,0+pclath+cstack]
  3633                           ;atoi@s stored from wreg
  3634  0F10  0022               	movlb	2	; select bank2
  3635  0F11  00ED               	movwf	atoi@s^(0+256)
  3636  0F12                     l5246:	
  3637  0F12  086D               	movf	atoi@s^(0+256),w
  3638  0F13  0086               	movwf	6
  3639  0F14  3001               	movlw	1	; select bank2/3
  3640  0F15  0087               	movwf	7
  3641  0F16  3020               	movlw	32
  3642  0F17  0601               	xorwf	1,w
  3643  0F18  1D03               	btfss	3,2
  3644  0F19  2F1F               	goto	l5248
  3645  0F1A                     l5244:	
  3646  0F1A  3001               	movlw	1
  3647  0F1B  00E8               	movwf	??_atoi^(0+256)
  3648  0F1C  0868               	movf	??_atoi^(0+256),w
  3649  0F1D  07ED               	addwf	atoi@s^(0+256),f
  3650  0F1E  2F12               	goto	l5246
  3651  0F1F                     l5248:	
  3652  0F1F  086D               	movf	atoi@s^(0+256),w
  3653  0F20  0086               	movwf	6
  3654  0F21  3001               	movlw	1	; select bank2/3
  3655  0F22  0087               	movwf	7
  3656  0F23  3009               	movlw	9
  3657  0F24  0601               	xorwf	1,w
  3658  0F25  1903               	btfsc	3,2
  3659  0F26  2F1A               	goto	l5244
  3660  0F27  01EB               	clrf	atoi@a^(0+256)
  3661  0F28  01EC               	clrf	(atoi@a+1)^(0+256)
  3662  0F29  01EA               	clrf	atoi@sign^(0+256)
  3663  0F2A  086D               	movf	atoi@s^(0+256),w
  3664  0F2B  0086               	movwf	6
  3665  0F2C  3001               	movlw	1	; select bank2/3
  3666  0F2D  0087               	movwf	7
  3667  0F2E  302D               	movlw	45
  3668  0F2F  0601               	xorwf	1,w
  3669  0F30  1D03               	btfss	3,2
  3670  0F31  2F37               	goto	l5256
  3671  0F32  3001               	movlw	1
  3672  0F33  00E8               	movwf	??_atoi^(0+256)
  3673  0F34  0868               	movf	??_atoi^(0+256),w
  3674  0F35  07EA               	addwf	atoi@sign^(0+256),f
  3675  0F36  2F3F               	goto	l5262
  3676  0F37                     l5256:	
  3677  0F37  086D               	movf	atoi@s^(0+256),w
  3678  0F38  0086               	movwf	6
  3679  0F39  3001               	movlw	1	; select bank2/3
  3680  0F3A  0087               	movwf	7
  3681  0F3B  302B               	movlw	43
  3682  0F3C  0601               	xorwf	1,w
  3683  0F3D  1D03               	btfss	3,2
  3684  0F3E  2F43               	goto	l5264
  3685  0F3F                     l5262:	
  3686  0F3F  3001               	movlw	1
  3687  0F40  00E8               	movwf	??_atoi^(0+256)
  3688  0F41  0868               	movf	??_atoi^(0+256),w
  3689  0F42  07ED               	addwf	atoi@s^(0+256),f
  3690  0F43                     l5264:	
  3691  0F43  086D               	movf	atoi@s^(0+256),w
  3692  0F44  0086               	movwf	6
  3693  0F45  3001               	movlw	1	; select bank2/3
  3694  0F46  0087               	movwf	7
  3695  0F47  0801               	movf	1,w
  3696  0F48  3188  2051  318F   	fcall	_isdigit
  3697  0F4B  1C03               	btfss	3,0
  3698  0F4C  2F6C               	goto	l5266
  3699  0F4D  0022               	movlb	2	; select bank2
  3700  0F4E  086C               	movf	(atoi@a+1)^(0+256),w
  3701  0F4F  00E1               	movwf	(___wmul@multiplier+1)^(0+256)
  3702  0F50  086B               	movf	atoi@a^(0+256),w
  3703  0F51  00E0               	movwf	___wmul@multiplier^(0+256)
  3704  0F52  300A               	movlw	10
  3705  0F53  00E2               	movwf	___wmul@multiplicand^(0+256)
  3706  0F54  3000               	movlw	0
  3707  0F55  00E3               	movwf	(___wmul@multiplicand^(0+256)+1)
  3708  0F56  3188  20CF  318F   	fcall	___wmul
  3709  0F59  0022               	movlb	2	; select bank2
  3710  0F5A  086D               	movf	atoi@s^(0+256),w
  3711  0F5B  0086               	movwf	6
  3712  0F5C  3001               	movlw	1	; select bank2/3
  3713  0F5D  0087               	movwf	7
  3714  0F5E  0801               	movf	1,w
  3715  0F5F  0760               	addwf	?___wmul^(0+256),w
  3716  0F60  00E8               	movwf	??_atoi^(0+256)
  3717  0F61  0861               	movf	(?___wmul+1)^(0+256),w
  3718  0F62  1803               	skipnc
  3719  0F63  0A61               	incf	(?___wmul+1)^(0+256),w
  3720  0F64  00E9               	movwf	(??_atoi^(0+256)+1)
  3721  0F65  0868               	movf	??_atoi^(0+256),w
  3722  0F66  3ED0               	addlw	208
  3723  0F67  00EB               	movwf	atoi@a^(0+256)
  3724  0F68  30FF               	movlw	255
  3725  0F69  3D69               	addwfc	(??_atoi+1)^(0+256),w
  3726  0F6A  00EC               	movwf	(atoi@a+1)^(0+256)
  3727  0F6B  2F3F               	goto	l5262
  3728  0F6C                     l5266:	
  3729  0F6C  0022               	movlb	2	; select bank2
  3730  0F6D  086A               	movf	atoi@sign^(0+256),w
  3731  0F6E  1903               	btfsc	3,2
  3732  0F6F  2F7C               	goto	l5272
  3733  0F70  096B               	comf	atoi@a^(0+256),w
  3734  0F71  00E8               	movwf	??_atoi^(0+256)
  3735  0F72  096C               	comf	(atoi@a+1)^(0+256),w
  3736  0F73  00E9               	movwf	(??_atoi^(0+256)+1)
  3737  0F74  0AE8               	incf	??_atoi^(0+256),f
  3738  0F75  1903               	skipnz
  3739  0F76  0AE9               	incf	(??_atoi^(0+256)+1),f
  3740  0F77  0868               	movf	??_atoi^(0+256),w
  3741  0F78  00E6               	movwf	?_atoi^(0+256)
  3742  0F79  0869               	movf	(??_atoi+1)^(0+256),w
  3743  0F7A  00E7               	movwf	(?_atoi+1)^(0+256)
  3744  0F7B  0008               	return
  3745  0F7C                     l5272:	
  3746  0F7C  086C               	movf	(atoi@a+1)^(0+256),w
  3747  0F7D  00E7               	movwf	(?_atoi+1)^(0+256)
  3748  0F7E  086B               	movf	atoi@a^(0+256),w
  3749  0F7F  00E6               	movwf	?_atoi^(0+256)
  3750  0F80  0008               	return
  3751  0F81                     __end_of_atoi:	
  3752                           
  3753                           	psect	text8
  3754  0851                     __ptext8:	
  3755 ;; *************** function _isdigit *****************
  3756 ;; Defined at:
  3757 ;;		line 8 in file "/opt/microchip/xc8/v1.35/sources/common/isdigit.c"
  3758 ;; Parameters:    Size  Location     Type
  3759 ;;  c               1    wreg     unsigned char 
  3760 ;; Auto vars:     Size  Location     Type
  3761 ;;  c               1    1[BANK2 ] unsigned char 
  3762 ;; Return value:  Size  Location     Type
  3763 ;;		None               void
  3764 ;; Registers used:
  3765 ;;		wreg, status,2, status,0
  3766 ;; Tracked objects:
  3767 ;;		On entry : 0/0
  3768 ;;		On exit  : 0/0
  3769 ;;		Unchanged: 0/0
  3770 ;; Data sizes:     COMMON  BANK0h   BANK1   BANK2   BANK3   BANK4   BANK5   BANK6   BANK7   BANK8   BANK9  BANK10  BANK1
      +1  BANK12
  3771 ;;      Params:         0       0       0       0       0       0       0       0       0       0       0       0       
      +0       0
  3772 ;;      Locals:         0       0       0       2       0       0       0       0       0       0       0       0       
      +0       0
  3773 ;;      Temps:          0       0       0       0       0       0       0       0       0       0       0       0       
      +0       0
  3774 ;;      Totals:         0       0       0       2       0       0       0       0       0       0       0       0       
      +0       0
  3775 ;;Total ram usage:        2 bytes
  3776 ;; Hardware stack levels used:    1
  3777 ;; Hardware stack levels required when called:   11
  3778 ;; This function calls:
  3779 ;;		Nothing
  3780 ;; This function is called by:
  3781 ;;		_atoi
  3782 ;; This function uses a non-reentrant model
  3783 ;;
  3784                           
  3785                           
  3786                           ;psect for function _isdigit
  3787  0851                     _isdigit:	
  3788                           
  3789                           ;incstack = 0
  3790                           ; Regs used in _isdigit: [wreg+status,2+status,0]
  3791                           ;isdigit@c stored from wreg
  3792  0851  0022               	movlb	2	; select bank2
  3793  0852  00E1               	movwf	isdigit@c^(0+256)
  3794  0853  01E0               	clrf	_isdigit$2126^(0+256)
  3795  0854  303A               	movlw	58
  3796  0855  0261               	subwf	isdigit@c^(0+256),w
  3797  0856  1803               	skipnc
  3798  0857  285E               	goto	l5048
  3799  0858  3030               	movlw	48
  3800  0859  0261               	subwf	isdigit@c^(0+256),w
  3801  085A  1C03               	skipc
  3802  085B  285E               	goto	l5048
  3803  085C  01E0               	clrf	_isdigit$2126^(0+256)
  3804  085D  0AE0               	incf	_isdigit$2126^(0+256),f
  3805  085E                     l5048:	
  3806  085E  0C60               	rrf	_isdigit$2126^(0+256),w
  3807  085F  0008               	return
  3808  0860                     __end_of_isdigit:	
  3809                           
  3810                           	psect	text9
  3811  08CF                     __ptext9:	
  3812 ;; *************** function ___wmul *****************
  3813 ;; Defined at:
  3814 ;;		line 15 in file "/opt/microchip/xc8/v1.35/sources/common/Umul16.c"
  3815 ;; Parameters:    Size  Location     Type
  3816 ;;  multiplier      2    0[BANK2 ] unsigned int 
  3817 ;;  multiplicand    2    2[BANK2 ] unsigned int 
  3818 ;; Auto vars:     Size  Location     Type
  3819 ;;  product         2    4[BANK2 ] unsigned int 
  3820 ;; Return value:  Size  Location     Type
  3821 ;;                  2    0[BANK2 ] unsigned int 
  3822 ;; Registers used:
  3823 ;;		wreg, status,2, status,0
  3824 ;; Tracked objects:
  3825 ;;		On entry : 0/0
  3826 ;;		On exit  : 0/0
  3827 ;;		Unchanged: 0/0
  3828 ;; Data sizes:     COMMON  BANK0h   BANK1   BANK2   BANK3   BANK4   BANK5   BANK6   BANK7   BANK8   BANK9  BANK10  BANK1
      +1  BANK12
  3829 ;;      Params:         0       0       0       4       0       0       0       0       0       0       0       0       
      +0       0
  3830 ;;      Locals:         0       0       0       2       0       0       0       0       0       0       0       0       
      +0       0
  3831 ;;      Temps:          0       0       0       0       0       0       0       0       0       0       0       0       
      +0       0
  3832 ;;      Totals:         0       0       0       6       0       0       0       0       0       0       0       0       
      +0       0
  3833 ;;Total ram usage:        6 bytes
  3834 ;; Hardware stack levels used:    1
  3835 ;; Hardware stack levels required when called:   11
  3836 ;; This function calls:
  3837 ;;		Nothing
  3838 ;; This function is called by:
  3839 ;;		_atoi
  3840 ;; This function uses a non-reentrant model
  3841 ;;
  3842                           
  3843                           
  3844                           ;psect for function ___wmul
  3845  08CF                     ___wmul:	
  3846                           
  3847                           ;incstack = 0
  3848                           ; Regs used in ___wmul: [wreg+status,2+status,0]
  3849  08CF  0022               	movlb	2	; select bank2
  3850  08D0  01E4               	clrf	___wmul@product^(0+256)
  3851  08D1  01E5               	clrf	(___wmul@product+1)^(0+256)
  3852  08D2                     l5028:	
  3853  08D2  1C60               	btfss	___wmul@multiplier^(0+256),0
  3854  08D3  28D8               	goto	l718
  3855  08D4  0862               	movf	___wmul@multiplicand^(0+256),w
  3856  08D5  07E4               	addwf	___wmul@product^(0+256),f
  3857  08D6  0863               	movf	(___wmul@multiplicand+1)^(0+256),w
  3858  08D7  3DE5               	addwfc	(___wmul@product+1)^(0+256),f
  3859  08D8                     l718:	
  3860  08D8  3001               	movlw	1
  3861  08D9                     u5045:	
  3862  08D9  35E2               	lslf	___wmul@multiplicand^(0+256),f
  3863  08DA  0DE3               	rlf	(___wmul@multiplicand+1)^(0+256),f
  3864  08DB  0B89               	decfsz	9,f
  3865  08DC  28D9               	goto	u5045
  3866  08DD  3001               	movlw	1
  3867  08DE                     u5055:	
  3868  08DE  36E1               	lsrf	(___wmul@multiplier+1)^(0+256),f
  3869  08DF  0CE0               	rrf	___wmul@multiplier^(0+256),f
  3870  08E0  0B89               	decfsz	9,f
  3871  08E1  28DE               	goto	u5055
  3872  08E2  0860               	movf	___wmul@multiplier^(0+256),w
  3873  08E3  0461               	iorwf	(___wmul@multiplier+1)^(0+256),w
  3874  08E4  1D03               	btfss	3,2
  3875  08E5  28D2               	goto	l5028
  3876  08E6  0865               	movf	(___wmul@product+1)^(0+256),w
  3877  08E7  00E1               	movwf	(?___wmul+1)^(0+256)
  3878  08E8  0864               	movf	___wmul@product^(0+256),w
  3879  08E9  00E0               	movwf	?___wmul^(0+256)
  3880  08EA  0008               	return
  3881  08EB                     __end_of___wmul:	
  3882                           
  3883                           	psect	text10
  3884  0328                     __ptext10:	
  3885 ;; *************** function _CDCTxService *****************
  3886 ;; Defined at:
  3887 ;;		line 836 in file "/opt/microchip/mla/framework/usb/src/usb_device_cdc.c"
  3888 ;; Parameters:    Size  Location     Type
  3889 ;;		None
  3890 ;; Auto vars:     Size  Location     Type
  3891 ;;  byte_to_send    1   11[BANK2 ] unsigned char 
  3892 ;;  i               1   10[BANK2 ] unsigned char 
  3893 ;; Return value:  Size  Location     Type
  3894 ;;		None               void
  3895 ;; Registers used:
  3896 ;;		wreg, fsr1l, fsr1h, status,2, status,0, pclath, cstack
  3897 ;; Tracked objects:
  3898 ;;		On entry : 0/0
  3899 ;;		On exit  : 0/0
  3900 ;;		Unchanged: 0/0
  3901 ;; Data sizes:     COMMON  BANK0h   BANK1   BANK2   BANK3   BANK4   BANK5   BANK6   BANK7   BANK8   BANK9  BANK10  BANK1
      +1  BANK12
  3902 ;;      Params:         0       0       0       0       0       0       0       0       0       0       0       0       
      +0       0
  3903 ;;      Locals:         0       0       0       2       0       0       0       0       0       0       0       0       
      +0       0
  3904 ;;      Temps:          0       0       0       2       0       0       0       0       0       0       0       0       
      +0       0
  3905 ;;      Totals:         0       0       0       4       0       0       0       0       0       0       0       0       
      +0       0
  3906 ;;Total ram usage:        4 bytes
  3907 ;; Hardware stack levels used:    1
  3908 ;; Hardware stack levels required when called:   12
  3909 ;; This function calls:
  3910 ;;		_USBTransferOnePacket
  3911 ;; This function is called by:
  3912 ;;		_APP_DeviceCDCBasicDemoTasks
  3913 ;; This function uses a non-reentrant model
  3914 ;;
  3915                           
  3916                           
  3917                           ;psect for function _CDCTxService
  3918  0328                     _CDCTxService:	
  3919                           
  3920                           ;usb_device_cdc.c: 838: uint8_t byte_to_send;
  3921                           ;usb_device_cdc.c: 839: uint8_t i;
  3922                           ;usb_device_cdc.c: 841: {PIE2bits.USBIE = 0;};
  3923                           
  3924                           ;incstack = 0
  3925                           ; Regs used in _CDCTxService: [wreg+fsr1l+fsr1h+status,2+status,0+pclath+cstack]
  3926  0328  0021               	movlb	1	; select bank1
  3927  0329  1112               	bcf	18,2	;volatile
  3928                           
  3929                           ;usb_device_cdc.c: 843: {};
  3930                           ;usb_device_cdc.c: 845: if(((CDCDataInHandle != 0x0000) && ((*(volatile uint8_t*)CDCData
      +                          InHandle & 0x80) != 0x00)))
  3931  032A  0023               	movlb	3	; select bank3
  3932  032B  0845               	movf	_CDCDataInHandle^(0+384),w
  3933  032C  1903               	btfsc	3,2
  3934  032D  2B36               	goto	l5110
  3935  032E  0845               	movf	_CDCDataInHandle^(0+384),w
  3936  032F  0086               	movwf	6
  3937  0330  0187               	clrf	7
  3938  0331  1F81               	btfss	1,7
  3939  0332  2B36               	goto	l5110
  3940                           
  3941                           ;usb_device_cdc.c: 846: {
  3942                           ;usb_device_cdc.c: 847: {PIE2bits.USBIE = 1;};
  3943  0333  0021               	movlb	1	; select bank1
  3944  0334  1512               	bsf	18,2	;volatile
  3945                           
  3946                           ;usb_device_cdc.c: 848: return;
  3947  0335  0008               	return
  3948  0336                     l5110:	
  3949                           
  3950                           ;usb_device_cdc.c: 849: }
  3951                           ;usb_device_cdc.c: 856: if(cdc_trf_state == 3)
  3952  0336  3003               	movlw	3
  3953  0337  0023               	movlb	3	; select bank3
  3954  0338  0654               	xorwf	_cdc_trf_state^(0+384),w
  3955  0339  1903               	btfsc	3,2
  3956                           
  3957                           ;usb_device_cdc.c: 857: cdc_trf_state = 0;
  3958  033A  01D4               	clrf	_cdc_trf_state^(0+384)
  3959                           
  3960                           ;usb_device_cdc.c: 862: if(cdc_trf_state == 0)
  3961  033B  0854               	movf	_cdc_trf_state^(0+384),w
  3962  033C  1D03               	btfss	3,2
  3963  033D  2B41               	goto	l5118
  3964                           
  3965                           ;usb_device_cdc.c: 863: {
  3966                           ;usb_device_cdc.c: 864: {PIE2bits.USBIE = 1;};
  3967  033E  0021               	movlb	1	; select bank1
  3968  033F  1512               	bsf	18,2	;volatile
  3969                           
  3970                           ;usb_device_cdc.c: 865: return;
  3971  0340  0008               	return
  3972  0341                     l5118:	
  3973                           
  3974                           ;usb_device_cdc.c: 866: }
  3975                           ;usb_device_cdc.c: 871: if(cdc_trf_state == 2)
  3976  0341  3002               	movlw	2
  3977  0342  0023               	movlb	3	; select bank3
  3978  0343  0654               	xorwf	_cdc_trf_state^(0+384),w
  3979  0344  1D03               	btfss	3,2
  3980  0345  2B5E               	goto	l5124
  3981                           
  3982                           ;usb_device_cdc.c: 872: {
  3983                           ;usb_device_cdc.c: 873: CDCDataInHandle = USBTransferOnePacket(2,1,(0),0);
  3984  0346  0022               	movlb	2	; select bank2
  3985  0347  01E0               	clrf	USBTransferOnePacket@dir^(0+256)
  3986  0348  0AE0               	incf	USBTransferOnePacket@dir^(0+256),f
  3987  0349  3000               	movlw	0
  3988  034A  00E1               	movwf	USBTransferOnePacket@data^(0+256)
  3989  034B  3000               	movlw	0
  3990  034C  00E2               	movwf	(USBTransferOnePacket@data+1)^(0+256)
  3991  034D  01E3               	clrf	USBTransferOnePacket@len^(0+256)
  3992  034E  3002               	movlw	2
  3993  034F  318C  2433  3183   	fcall	_USBTransferOnePacket
  3994  0352  0022               	movlb	2	; select bank2
  3995  0353  00E8               	movwf	??_CDCTxService^(0+256)
  3996  0354  0868               	movf	??_CDCTxService^(0+256),w
  3997  0355  0023               	movlb	3	; select bank3
  3998  0356  00C5               	movwf	_CDCDataInHandle^(0+384)
  3999                           
  4000                           ;usb_device_cdc.c: 875: cdc_trf_state = 3;
  4001  0357  3003               	movlw	3
  4002  0358  0022               	movlb	2	; select bank2
  4003  0359  00E8               	movwf	??_CDCTxService^(0+256)
  4004  035A  0868               	movf	??_CDCTxService^(0+256),w
  4005  035B  0023               	movlb	3	; select bank3
  4006  035C  00D4               	movwf	_cdc_trf_state^(0+384)
  4007                           
  4008                           ;usb_device_cdc.c: 876: }
  4009  035D  2BED               	goto	l5172
  4010  035E                     l5124:	
  4011                           
  4012                           ;usb_device_cdc.c: 877: else if(cdc_trf_state == 1)
  4013  035E  0354               	decf	_cdc_trf_state^(0+384),w
  4014  035F  1D03               	btfss	3,2
  4015  0360  2BED               	goto	l5172
  4016                           
  4017                           ;usb_device_cdc.c: 878: {
  4018                           ;usb_device_cdc.c: 882: if(cdc_tx_len > sizeof(cdc_data_tx))
  4019  0361  3041               	movlw	65
  4020  0362  0255               	subwf	_cdc_tx_len^(0+384),w
  4021  0363  1C03               	skipc
  4022  0364  2B67               	goto	l5130
  4023                           
  4024                           ;usb_device_cdc.c: 883: byte_to_send = sizeof(cdc_data_tx);
  4025  0365  3040               	movlw	64
  4026  0366  2B69               	goto	L1
  4027  0367                     l5130:	
  4028                           
  4029                           ;usb_device_cdc.c: 884: else
  4030                           ;usb_device_cdc.c: 885: byte_to_send = cdc_tx_len;
  4031  0367  0023               	movlb	3	; select bank3
  4032  0368  0855               	movf	_cdc_tx_len^(0+384),w
  4033  0369                     L1:	
  4034  0369  0022               	movlb	2	; select bank2
  4035  036A  00E8               	movwf	??_CDCTxService^(0+256)
  4036  036B  0868               	movf	??_CDCTxService^(0+256),w
  4037  036C  00EB               	movwf	CDCTxService@byte_to_send^(0+256)
  4038                           
  4039                           ;usb_device_cdc.c: 890: cdc_tx_len = cdc_tx_len - byte_to_send;
  4040  036D  036B               	decf	CDCTxService@byte_to_send^(0+256),w
  4041  036E  3AFF               	xorlw	255
  4042  036F  0023               	movlb	3	; select bank3
  4043  0370  0755               	addwf	_cdc_tx_len^(0+384),w
  4044  0371  0022               	movlb	2	; select bank2
  4045  0372  00E8               	movwf	??_CDCTxService^(0+256)
  4046  0373  0868               	movf	??_CDCTxService^(0+256),w
  4047  0374  0023               	movlb	3	; select bank3
  4048  0375  00D5               	movwf	_cdc_tx_len^(0+384)
  4049                           
  4050                           ;usb_device_cdc.c: 892: pCDCDst.bRam = (uint8_t*)&cdc_data_tx;
  4051  0376  30A0               	movlw	160
  4052  0377  0022               	movlb	2	; select bank2
  4053  0378  00E8               	movwf	??_CDCTxService^(0+256)
  4054  0379  0868               	movf	??_CDCTxService^(0+256),w
  4055  037A  0023               	movlb	3	; select bank3
  4056  037B  00BD               	movwf	_pCDCDst^(0+384)
  4057                           
  4058                           ;usb_device_cdc.c: 894: i = byte_to_send;
  4059  037C  0022               	movlb	2	; select bank2
  4060  037D  086B               	movf	CDCTxService@byte_to_send^(0+256),w
  4061  037E  00E8               	movwf	??_CDCTxService^(0+256)
  4062  037F  0868               	movf	??_CDCTxService^(0+256),w
  4063  0380  00EA               	movwf	CDCTxService@i^(0+256)
  4064                           
  4065                           ;usb_device_cdc.c: 895: if(cdc_mem_type == 0x00)
  4066  0381  0023               	movlb	3	; select bank3
  4067  0382  0852               	movf	_cdc_mem_type^(0+384),w
  4068  0383  1903               	btfsc	3,2
  4069  0384  2BA3               	goto	l5150
  4070  0385  2BC5               	goto	l5160
  4071  0386                     l5142:	
  4072                           ;usb_device_cdc.c: 896: {
  4073                           ;usb_device_cdc.c: 897: while(i)
  4074                           
  4075                           
  4076                           ;usb_device_cdc.c: 898: {
  4077                           ;usb_device_cdc.c: 899: *pCDCDst.bRam = *pCDCSrc.bRom;
  4078  0386  0023               	movlb	3	; select bank3
  4079  0387  083F               	movf	_pCDCSrc^(0+384),w
  4080  0388  0086               	movwf	6
  4081  0389  3002               	movlw	2	; select bank4/5
  4082  038A  0087               	movwf	7
  4083  038B  0801               	movf	1,w
  4084  038C  0022               	movlb	2	; select bank2
  4085  038D  00E8               	movwf	??_CDCTxService^(0+256)
  4086  038E  0023               	movlb	3	; select bank3
  4087  038F  083D               	movf	_pCDCDst^(0+384),w
  4088  0390  0086               	movwf	6
  4089  0391  0187               	clrf	7
  4090  0392  0022               	movlb	2	; select bank2
  4091  0393  0868               	movf	??_CDCTxService^(0+256),w
  4092  0394  0081               	movwf	1
  4093                           
  4094                           ;usb_device_cdc.c: 900: pCDCDst.bRam++;
  4095  0395  3001               	movlw	1
  4096  0396  00E8               	movwf	??_CDCTxService^(0+256)
  4097  0397  0868               	movf	??_CDCTxService^(0+256),w
  4098  0398  0023               	movlb	3	; select bank3
  4099  0399  07BD               	addwf	_pCDCDst^(0+384),f
  4100                           
  4101                           ;usb_device_cdc.c: 901: pCDCSrc.bRom++;
  4102  039A  3001               	movlw	1
  4103  039B  0022               	movlb	2	; select bank2
  4104  039C  00E8               	movwf	??_CDCTxService^(0+256)
  4105  039D  0868               	movf	??_CDCTxService^(0+256),w
  4106  039E  0023               	movlb	3	; select bank3
  4107  039F  07BF               	addwf	_pCDCSrc^(0+384),f
  4108                           
  4109                           ;usb_device_cdc.c: 902: i--;
  4110  03A0  3001               	movlw	1
  4111  03A1  0022               	movlb	2	; select bank2
  4112  03A2  02EA               	subwf	CDCTxService@i^(0+256),f
  4113  03A3                     l5150:	
  4114  03A3  0022               	movlb	2	; select bank2
  4115  03A4  086A               	movf	CDCTxService@i^(0+256),w
  4116  03A5  1903               	btfsc	3,2
  4117  03A6  2BC9               	goto	l5162
  4118  03A7  2B86               	goto	l5142
  4119  03A8                     l5152:	
  4120                           ;usb_device_cdc.c: 905: else
  4121                           ;usb_device_cdc.c: 906: {
  4122                           ;usb_device_cdc.c: 907: while(i)
  4123                           
  4124                           ;usb_device_cdc.c: 903: }
  4125                           ;usb_device_cdc.c: 904: }
  4126                           
  4127                           
  4128                           ;usb_device_cdc.c: 908: {
  4129                           ;usb_device_cdc.c: 909: *pCDCDst.bRam = *pCDCSrc.bRam;
  4130  03A8  0023               	movlb	3	; select bank3
  4131  03A9  083F               	movf	_pCDCSrc^(0+384),w
  4132  03AA  0086               	movwf	6
  4133  03AB  3002               	movlw	2	; select bank4/5
  4134  03AC  0087               	movwf	7
  4135  03AD  0801               	movf	1,w
  4136  03AE  0022               	movlb	2	; select bank2
  4137  03AF  00E8               	movwf	??_CDCTxService^(0+256)
  4138  03B0  0023               	movlb	3	; select bank3
  4139  03B1  083D               	movf	_pCDCDst^(0+384),w
  4140  03B2  0086               	movwf	6
  4141  03B3  0187               	clrf	7
  4142  03B4  0022               	movlb	2	; select bank2
  4143  03B5  0868               	movf	??_CDCTxService^(0+256),w
  4144  03B6  0081               	movwf	1
  4145                           
  4146                           ;usb_device_cdc.c: 910: pCDCDst.bRam++;
  4147  03B7  3001               	movlw	1
  4148  03B8  00E8               	movwf	??_CDCTxService^(0+256)
  4149  03B9  0868               	movf	??_CDCTxService^(0+256),w
  4150  03BA  0023               	movlb	3	; select bank3
  4151  03BB  07BD               	addwf	_pCDCDst^(0+384),f
  4152                           
  4153                           ;usb_device_cdc.c: 911: pCDCSrc.bRam++;
  4154  03BC  3001               	movlw	1
  4155  03BD  0022               	movlb	2	; select bank2
  4156  03BE  00E8               	movwf	??_CDCTxService^(0+256)
  4157  03BF  0868               	movf	??_CDCTxService^(0+256),w
  4158  03C0  0023               	movlb	3	; select bank3
  4159  03C1  07BF               	addwf	_pCDCSrc^(0+384),f
  4160                           
  4161                           ;usb_device_cdc.c: 912: i--;
  4162  03C2  3001               	movlw	1
  4163  03C3  0022               	movlb	2	; select bank2
  4164  03C4  02EA               	subwf	CDCTxService@i^(0+256),f
  4165  03C5                     l5160:	
  4166  03C5  0022               	movlb	2	; select bank2
  4167  03C6  086A               	movf	CDCTxService@i^(0+256),w
  4168  03C7  1D03               	btfss	3,2
  4169  03C8  2BA8               	goto	l5152
  4170  03C9                     l5162:	
  4171                           
  4172                           ;usb_device_cdc.c: 913: }
  4173                           ;usb_device_cdc.c: 914: }
  4174                           ;usb_device_cdc.c: 920: if(cdc_tx_len == 0)
  4175  03C9  0023               	movlb	3	; select bank3
  4176  03CA  0855               	movf	_cdc_tx_len^(0+384),w
  4177  03CB  1D03               	btfss	3,2
  4178  03CC  2BDA               	goto	l5170
  4179                           
  4180                           ;usb_device_cdc.c: 921: {
  4181                           ;usb_device_cdc.c: 922: if(byte_to_send == 64)
  4182  03CD  3040               	movlw	64
  4183  03CE  0022               	movlb	2	; select bank2
  4184  03CF  066B               	xorwf	CDCTxService@byte_to_send^(0+256),w
  4185  03D0  1D03               	btfss	3,2
  4186  03D1  2BD4               	goto	l5168
  4187                           
  4188                           ;usb_device_cdc.c: 923: cdc_trf_state = 2;
  4189  03D2  3002               	movlw	2
  4190  03D3  2BD6               	goto	L2
  4191  03D4                     l5168:	
  4192                           
  4193                           ;usb_device_cdc.c: 924: else
  4194                           ;usb_device_cdc.c: 925: cdc_trf_state = 3;
  4195  03D4  3003               	movlw	3
  4196  03D5  0022               	movlb	2	; select bank2
  4197  03D6                     L2:	
  4198  03D6  00E8               	movwf	??_CDCTxService^(0+256)
  4199  03D7  0868               	movf	??_CDCTxService^(0+256),w
  4200  03D8  0023               	movlb	3	; select bank3
  4201  03D9  00D4               	movwf	_cdc_trf_state^(0+384)
  4202  03DA                     l5170:	
  4203                           
  4204                           ;usb_device_cdc.c: 926: }
  4205                           ;usb_device_cdc.c: 927: CDCDataInHandle = USBTransferOnePacket(2,1,(uint8_t*)&cdc_data_t
      +                          x,byte_to_send);
  4206  03DA  0022               	movlb	2	; select bank2
  4207  03DB  01E0               	clrf	USBTransferOnePacket@dir^(0+256)
  4208  03DC  0AE0               	incf	USBTransferOnePacket@dir^(0+256),f
  4209  03DD  30A0               	movlw	160
  4210  03DE  00E1               	movwf	USBTransferOnePacket@data^(0+256)
  4211  03DF  3000               	movlw	0
  4212  03E0  00E2               	movwf	(USBTransferOnePacket@data+1)^(0+256)
  4213  03E1  086B               	movf	CDCTxService@byte_to_send^(0+256),w
  4214  03E2  00E8               	movwf	??_CDCTxService^(0+256)
  4215  03E3  0868               	movf	??_CDCTxService^(0+256),w
  4216  03E4  00E3               	movwf	USBTransferOnePacket@len^(0+256)
  4217  03E5  3002               	movlw	2
  4218  03E6  318C  2433         	fcall	_USBTransferOnePacket
  4219  03E8  0022               	movlb	2	; select bank2
  4220  03E9  00E9               	movwf	(??_CDCTxService+1)^(0+256)
  4221  03EA  0869               	movf	(??_CDCTxService+1)^(0+256),w
  4222  03EB  0023               	movlb	3	; select bank3
  4223  03EC  00C5               	movwf	_CDCDataInHandle^(0+384)
  4224  03ED                     l5172:	
  4225                           
  4226                           ;usb_device_cdc.c: 929: }
  4227                           ;usb_device_cdc.c: 931: {PIE2bits.USBIE = 1;};
  4228  03ED  0021               	movlb	1	; select bank1
  4229  03EE  1512               	bsf	18,2	;volatile
  4230  03EF  0008               	return
  4231  03F0                     __end_of_CDCTxService:	
  4232                           
  4233                           	psect	text11
  4234  0C33                     __ptext11:	
  4235 ;; *************** function _USBTransferOnePacket *****************
  4236 ;; Defined at:
  4237 ;;		line 1013 in file "/opt/microchip/mla/framework/usb/src/usb_device.c"
  4238 ;; Parameters:    Size  Location     Type
  4239 ;;  ep              1    wreg     unsigned char 
  4240 ;;  dir             1    0[BANK2 ] unsigned char 
  4241 ;;  data            2    1[BANK2 ] PTR unsigned char 
  4242 ;;		 -> cdc_data_tx(64), NULL(0), cdc_data_rx(64), 
  4243 ;;  len             1    3[BANK2 ] unsigned char 
  4244 ;; Auto vars:     Size  Location     Type
  4245 ;;  ep              1    6[BANK2 ] unsigned char 
  4246 ;;  handle          1    7[BANK2 ] PTR volatile struct __BD
  4247 ;;		 -> BDT(48), NULL(0), 
  4248 ;; Return value:  Size  Location     Type
  4249 ;;                  1    wreg      PTR void 
  4250 ;; Registers used:
  4251 ;;		wreg, fsr1l, fsr1h, status,2, status,0
  4252 ;; Tracked objects:
  4253 ;;		On entry : 0/0
  4254 ;;		On exit  : 0/0
  4255 ;;		Unchanged: 0/0
  4256 ;; Data sizes:     COMMON  BANK0h   BANK1   BANK2   BANK3   BANK4   BANK5   BANK6   BANK7   BANK8   BANK9  BANK10  BANK1
      +1  BANK12
  4257 ;;      Params:         0       0       0       4       0       0       0       0       0       0       0       0       
      +0       0
  4258 ;;      Locals:         0       0       0       2       0       0       0       0       0       0       0       0       
      +0       0
  4259 ;;      Temps:          0       0       0       2       0       0       0       0       0       0       0       0       
      +0       0
  4260 ;;      Totals:         0       0       0       8       0       0       0       0       0       0       0       0       
      +0       0
  4261 ;;Total ram usage:        8 bytes
  4262 ;; Hardware stack levels used:    1
  4263 ;; Hardware stack levels required when called:   11
  4264 ;; This function calls:
  4265 ;;		Nothing
  4266 ;; This function is called by:
  4267 ;;		_getsUSBUSART
  4268 ;;		_CDCTxService
  4269 ;;		_USBCDCEventHandler
  4270 ;; This function uses a non-reentrant model
  4271 ;;
  4272                           
  4273                           
  4274                           ;psect for function _USBTransferOnePacket
  4275  0C33                     _USBTransferOnePacket:	
  4276                           
  4277                           ;incstack = 0
  4278                           ; Regs used in _USBTransferOnePacket: [wreg+fsr1l+fsr1h+status,2+status,0]
  4279                           ;USBTransferOnePacket@ep stored from wreg
  4280  0C33  0022               	movlb	2	; select bank2
  4281  0C34  00E6               	movwf	USBTransferOnePacket@ep^(0+256)
  4282                           
  4283                           ;usb_device.c: 1015: volatile BDT_ENTRY* handle;
  4284                           ;usb_device.c: 1018: if(dir != 0)
  4285  0C35  0860               	movf	USBTransferOnePacket@dir^(0+256),w
  4286  0C36  1903               	btfsc	3,2
  4287  0C37  2C3B               	goto	l4924
  4288                           
  4289                           ;usb_device.c: 1019: {
  4290                           ;usb_device.c: 1021: handle = pBDTEntryIn[ep];
  4291  0C38  0866               	movf	USBTransferOnePacket@ep^(0+256),w
  4292  0C39  3EB5               	addlw	(low (_pBDTEntryIn| (0+256)))& (0+255)
  4293  0C3A  2C3D               	goto	L3
  4294  0C3B                     l4924:	
  4295                           ;usb_device.c: 1022: }
  4296                           
  4297                           
  4298                           ;usb_device.c: 1023: else
  4299                           ;usb_device.c: 1024: {
  4300                           ;usb_device.c: 1026: handle = pBDTEntryOut[ep];
  4301  0C3B  0866               	movf	USBTransferOnePacket@ep^(0+256),w
  4302  0C3C  3EB8               	addlw	(low (_pBDTEntryOut| (0+256)))& (0+255)
  4303  0C3D                     L3:	
  4304  0C3D  0086               	movwf	6
  4305  0C3E  3001               	movlw	1	; select bank3/4
  4306  0C3F  0087               	movwf	7
  4307  0C40  0801               	movf	1,w
  4308  0C41  00E4               	movwf	??_USBTransferOnePacket^(0+256)
  4309  0C42  0864               	movf	??_USBTransferOnePacket^(0+256),w
  4310  0C43  00E7               	movwf	USBTransferOnePacket@handle^(0+256)
  4311                           
  4312                           ;usb_device.c: 1027: }
  4313                           ;usb_device.c: 1031: if(handle == 0)
  4314  0C44  0867               	movf	USBTransferOnePacket@handle^(0+256),w
  4315  0C45  1D03               	btfss	3,2
  4316  0C46  2C49               	goto	l4932
  4317                           
  4318                           ;usb_device.c: 1032: {
  4319                           ;usb_device.c: 1033: return 0;
  4320  0C47  3000               	movlw	0
  4321  0C48  0008               	return
  4322  0C49                     l4932:	
  4323                           
  4324                           ;usb_device.c: 1034: }
  4325                           ;usb_device.c: 1047: handle->ADR = (((uint16_t)(data)) & 0x7FFF);
  4326  0C49  30FF               	movlw	255
  4327  0C4A  0561               	andwf	USBTransferOnePacket@data^(0+256),w
  4328  0C4B  00E4               	movwf	??_USBTransferOnePacket^(0+256)
  4329  0C4C  307F               	movlw	127
  4330  0C4D  0562               	andwf	(USBTransferOnePacket@data+1)^(0+256),w
  4331  0C4E  00E5               	movwf	(??_USBTransferOnePacket+1)^(0+256)
  4332  0C4F  0867               	movf	USBTransferOnePacket@handle^(0+256),w
  4333  0C50  3E02               	addlw	2
  4334  0C51  0086               	movwf	6
  4335  0C52  0187               	clrf	7
  4336  0C53  0864               	movf	??_USBTransferOnePacket^(0+256),w
  4337  0C54  3FC0               	movwi [0]fsr1
  4338  0C55  0865               	movf	(??_USBTransferOnePacket^(0+256)+1),w
  4339  0C56  3FC1               	movwi [1]fsr1
  4340                           
  4341                           ;usb_device.c: 1048: handle->CNT = len;
  4342  0C57  0863               	movf	USBTransferOnePacket@len^(0+256),w
  4343  0C58  00E4               	movwf	??_USBTransferOnePacket^(0+256)
  4344  0C59  0A67               	incf	USBTransferOnePacket@handle^(0+256),w
  4345  0C5A  0086               	movwf	6
  4346  0C5B  0187               	clrf	7
  4347  0C5C  0864               	movf	??_USBTransferOnePacket^(0+256),w
  4348  0C5D  0081               	movwf	1
  4349                           
  4350                           ;usb_device.c: 1049: handle->STAT.Val &= 0x40;
  4351  0C5E  3040               	movlw	64
  4352  0C5F  00E4               	movwf	??_USBTransferOnePacket^(0+256)
  4353  0C60  0867               	movf	USBTransferOnePacket@handle^(0+256),w
  4354  0C61  0086               	movwf	6
  4355  0C62  0187               	clrf	7
  4356  0C63  0864               	movf	??_USBTransferOnePacket^(0+256),w
  4357  0C64  0581               	andwf	1,f
  4358                           
  4359                           ;usb_device.c: 1050: handle->STAT.Val |= (0x08 & 0x08);
  4360  0C65  0867               	movf	USBTransferOnePacket@handle^(0+256),w
  4361  0C66  0086               	movwf	6
  4362  0C67  0187               	clrf	7
  4363  0C68  1581               	bsf	1,3
  4364                           
  4365                           ;usb_device.c: 1051: handle->STAT.Val |= 0x80;
  4366  0C69  0867               	movf	USBTransferOnePacket@handle^(0+256),w
  4367  0C6A  0086               	movwf	6
  4368  0C6B  0187               	clrf	7
  4369  0C6C  1781               	bsf	1,7
  4370                           
  4371                           ;usb_device.c: 1054: if(dir != 0)
  4372  0C6D  0860               	movf	USBTransferOnePacket@dir^(0+256),w
  4373  0C6E  1903               	btfsc	3,2
  4374  0C6F  2C75               	goto	l4942
  4375                           
  4376                           ;usb_device.c: 1055: {
  4377                           ;usb_device.c: 1057: {((uint8_t_VAL*)&pBDTEntryIn[ep])->Val ^= 0x0004;};
  4378  0C70  3004               	movlw	4
  4379  0C71  00E4               	movwf	??_USBTransferOnePacket^(0+256)
  4380  0C72  0866               	movf	USBTransferOnePacket@ep^(0+256),w
  4381  0C73  3EB5               	addlw	(low (_pBDTEntryIn| (0+256)))& (0+255)
  4382  0C74  2C79               	goto	L4
  4383  0C75                     l4942:	
  4384                           ;usb_device.c: 1058: }
  4385                           
  4386                           
  4387                           ;usb_device.c: 1059: else
  4388                           ;usb_device.c: 1060: {
  4389                           ;usb_device.c: 1062: {((uint8_t_VAL*)&pBDTEntryOut[ep])->Val ^= 0x0004;};
  4390  0C75  3004               	movlw	4
  4391  0C76  00E4               	movwf	??_USBTransferOnePacket^(0+256)
  4392  0C77  0866               	movf	USBTransferOnePacket@ep^(0+256),w
  4393  0C78  3EB8               	addlw	(low (_pBDTEntryOut| (0+256)))& (0+255)
  4394  0C79                     L4:	
  4395  0C79  0086               	movwf	6
  4396  0C7A  3001               	movlw	1	; select bank3/4
  4397  0C7B  0087               	movwf	7
  4398  0C7C  0864               	movf	??_USBTransferOnePacket^(0+256),w
  4399  0C7D  0681               	xorwf	1,f
  4400                           
  4401                           ;usb_device.c: 1063: }
  4402                           ;usb_device.c: 1064: return (void*)handle;
  4403  0C7E  0867               	movf	USBTransferOnePacket@handle^(0+256),w
  4404  0C7F  0008               	return
  4405  0C80                     __end_of_USBTransferOnePacket:	
  4406                           
  4407                           	psect	intentry
  4408  0004                     __pintentry:	
  4409 ;; *************** function _SYS_InterruptHigh *****************
  4410 ;; Defined at:
  4411 ;;		line 109 in file "system.c"
  4412 ;; Parameters:    Size  Location     Type
  4413 ;;		None
  4414 ;; Auto vars:     Size  Location     Type
  4415 ;;		None
  4416 ;; Return value:  Size  Location     Type
  4417 ;;		None               void
  4418 ;; Registers used:
  4419 ;;		wreg, fsr0l, fsr0h, fsr1l, fsr1h, status,2, status,0, pclath, cstack
  4420 ;; Tracked objects:
  4421 ;;		On entry : 0/0
  4422 ;;		On exit  : 0/0
  4423 ;;		Unchanged: 0/0
  4424 ;; Data sizes:     COMMON  BANK0h   BANK1   BANK2   BANK3   BANK4   BANK5   BANK6   BANK7   BANK8   BANK9  BANK10  BANK1
      +1  BANK12
  4425 ;;      Params:         0       0       0       0       0       0       0       0       0       0       0       0       
      +0       0
  4426 ;;      Locals:         0       0       0       0       0       0       0       0       0       0       0       0       
      +0       0
  4427 ;;      Temps:          0       0       1       0       0       0       0       0       0       0       0       0       
      +0       0
  4428 ;;      Totals:         0       0       1       0       0       0       0       0       0       0       0       0       
      +0       0
  4429 ;;Total ram usage:        1 bytes
  4430 ;; Hardware stack levels used:    1
  4431 ;; Hardware stack levels required when called:   10
  4432 ;; This function calls:
  4433 ;;		_USBDeviceTasks
  4434 ;; This function is called by:
  4435 ;;		Interrupt level 1
  4436 ;; This function uses a non-reentrant model
  4437 ;;
  4438                           
  4439  0004                     _SYS_InterruptHigh:	
  4440                           
  4441                           ;incstack = 0
  4442                           ; Regs used in _SYS_InterruptHigh: [wreg-fsr1h+status,2+status,0+pclath+cstack]
  4443  0004  147E               	bsf	126,0	;set compiler interrupt flag (level 1)
  4444  0005  3180               	pagesel	$
  4445  0006  0020               	movlb	0	; select bank0
  4446  0007  087F               	movf	127,w
  4447  0008  0021               	movlb	1	; select bank1
  4448  0009  00E6               	movwf	??_SYS_InterruptHigh^(0+128)
  4449                           
  4450                           ;system.c: 112: USBDeviceTasks();
  4451  000A  3182  2241         	fcall	_USBDeviceTasks
  4452  000C  0021               	movlb	1	; select bank1
  4453  000D  0866               	movf	??_SYS_InterruptHigh^(0+128),w
  4454  000E  0020               	movlb	0	; select bank0
  4455  000F  00FF               	movwf	127
  4456  0010  107E               	bcf	126,0	;clear compiler interrupt flag (level 1)
  4457  0011  0009               	retfie
  4458  0012                     __end_of_SYS_InterruptHigh:	
  4459                           
  4460                           	psect	text13
  4461  0241                     __ptext13:	
  4462 ;; *************** function _USBDeviceTasks *****************
  4463 ;; Defined at:
  4464 ;;		line 495 in file "/opt/microchip/mla/framework/usb/src/usb_device.c"
  4465 ;; Parameters:    Size  Location     Type
  4466 ;;		None
  4467 ;; Auto vars:     Size  Location     Type
  4468 ;;  i               1    5[BANK1 ] unsigned char 
  4469 ;; Return value:  Size  Location     Type
  4470 ;;		None               void
  4471 ;; Registers used:
  4472 ;;		wreg, fsr0l, fsr0h, fsr1l, fsr1h, status,2, status,0, pclath, cstack
  4473 ;; Tracked objects:
  4474 ;;		On entry : 0/0
  4475 ;;		On exit  : 0/0
  4476 ;;		Unchanged: 0/0
  4477 ;; Data sizes:     COMMON  BANK0h   BANK1   BANK2   BANK3   BANK4   BANK5   BANK6   BANK7   BANK8   BANK9  BANK10  BANK1
      +1  BANK12
  4478 ;;      Params:         0       0       0       0       0       0       0       0       0       0       0       0       
      +0       0
  4479 ;;      Locals:         0       0       1       0       0       0       0       0       0       0       0       0       
      +0       0
  4480 ;;      Temps:          0       0       2       0       0       0       0       0       0       0       0       0       
      +0       0
  4481 ;;      Totals:         0       0       3       0       0       0       0       0       0       0       0       0       
      +0       0
  4482 ;;Total ram usage:        3 bytes
  4483 ;; Hardware stack levels used:    1
  4484 ;; Hardware stack levels required when called:    9
  4485 ;; This function calls:
  4486 ;;		_USBCtrlEPAllowStatusStage
  4487 ;;		_USBCtrlEPService
  4488 ;;		_USBIncrement1msInternalTimers
  4489 ;;		_USBStallHandler
  4490 ;;		_USBSuspend
  4491 ;;		_USBWakeFromSuspend
  4492 ;;		_USER_USB_CALLBACK_EVENT_HANDLER
  4493 ;;		i1_USBDeviceInit
  4494 ;; This function is called by:
  4495 ;;		_SYS_InterruptHigh
  4496 ;; This function uses a non-reentrant model
  4497 ;;
  4498                           
  4499                           
  4500                           ;psect for function _USBDeviceTasks
  4501  0241                     _USBDeviceTasks:	
  4502                           
  4503                           ;usb_device.c: 497: uint8_t i;
  4504                           ;usb_device.c: 608: if(USBDeviceState == ATTACHED_STATE)
  4505                           
  4506                           ;incstack = 0
  4507                           ; Regs used in _USBDeviceTasks: [wreg-fsr1h+status,2+status,0+pclath+cstack]
  4508  0241  0023               	movlb	3	; select bank3
  4509  0242  034C               	decf	_USBDeviceState^(0+384),w	;volatile
  4510  0243  1D03               	btfss	3,2
  4511  0244  2A51               	goto	i1l5444
  4512                           
  4513                           ;usb_device.c: 609: {
  4514                           ;usb_device.c: 619: if(!UCONbits.SE0)
  4515  0245  003D               	movlb	29	; select bank29
  4516  0246  1A8E               	btfsc	14,5	;volatile
  4517  0247  2A51               	goto	i1l5444
  4518                           
  4519                           ;usb_device.c: 620: {
  4520                           ;usb_device.c: 626: {UIR = 0;};
  4521  0248  0190               	clrf	16	;volatile
  4522                           
  4523                           ;usb_device.c: 632: UIEbits.URSTIE = 1;
  4524  0249  1412               	bsf	18,0	;volatile
  4525                           
  4526                           ;usb_device.c: 633: UIEbits.IDLEIE = 1;
  4527  024A  1612               	bsf	18,4	;volatile
  4528                           
  4529                           ;usb_device.c: 634: USBDeviceState = POWERED_STATE;
  4530  024B  3002               	movlw	2
  4531  024C  0021               	movlb	1	; select bank1
  4532  024D  00E3               	movwf	??_USBDeviceTasks^(0+128)
  4533  024E  0863               	movf	??_USBDeviceTasks^(0+128),w
  4534  024F  0023               	movlb	3	; select bank3
  4535  0250  00CC               	movwf	_USBDeviceState^(0+384)	;volatile
  4536  0251                     i1l5444:	
  4537                           
  4538                           ;usb_device.c: 635: }
  4539                           ;usb_device.c: 636: }
  4540                           ;usb_device.c: 652: if(UIRbits.ACTVIF && UIEbits.ACTVIE)
  4541  0251  003D               	movlb	29	; select bank29
  4542  0252  1910               	btfsc	16,2	;volatile
  4543  0253  1D12               	btfss	18,2	;volatile
  4544  0254  2A5E               	goto	i1l5452
  4545                           
  4546                           ;usb_device.c: 653: {
  4547                           ;usb_device.c: 654: (UIR &= 0xFB);
  4548  0255  30FB               	movlw	251
  4549  0256  0021               	movlb	1	; select bank1
  4550  0257  00E3               	movwf	??_USBDeviceTasks^(0+128)
  4551  0258  0863               	movf	??_USBDeviceTasks^(0+128),w
  4552  0259  003D               	movlb	29	; select bank29
  4553  025A  0590               	andwf	16,f	;volatile
  4554                           
  4555                           ;usb_device.c: 658: USBWakeFromSuspend();
  4556  025B  3189  2165  3182   	fcall	_USBWakeFromSuspend
  4557  025E                     i1l5452:	
  4558                           
  4559                           ;usb_device.c: 660: }
  4560                           ;usb_device.c: 665: if(UCONbits.SUSPND==1)
  4561  025E  003D               	movlb	29	; select bank29
  4562  025F  1C8E               	btfss	14,1	;volatile
  4563  0260  2A64               	goto	i1l267
  4564                           
  4565                           ;usb_device.c: 666: {
  4566                           ;usb_device.c: 667: PIR2bits.USBIF = 0;;
  4567  0261  0020               	movlb	0	; select bank0
  4568  0262  1112               	bcf	18,2	;volatile
  4569                           
  4570                           ;usb_device.c: 668: return;
  4571  0263  0008               	return
  4572  0264                     i1l267:	
  4573                           
  4574                           ;usb_device.c: 669: }
  4575                           ;usb_device.c: 681: if(UIRbits.URSTIF && UIEbits.URSTIE)
  4576  0264  1810               	btfsc	16,0	;volatile
  4577  0265  1C12               	btfss	18,0	;volatile
  4578  0266  2A77               	goto	i1l5466
  4579                           
  4580                           ;usb_device.c: 682: {
  4581                           ;usb_device.c: 683: USBDeviceInit();
  4582  0267  3184  24A3  3182   	fcall	i1_USBDeviceInit
  4583                           
  4584                           ;usb_device.c: 687: {PIE2bits.USBIE = 1;};
  4585  026A  0021               	movlb	1	; select bank1
  4586  026B  1512               	bsf	18,2	;volatile
  4587                           
  4588                           ;usb_device.c: 689: USBDeviceState = DEFAULT_STATE;
  4589  026C  3004               	movlw	4
  4590  026D  00E3               	movwf	??_USBDeviceTasks^(0+128)
  4591  026E  0863               	movf	??_USBDeviceTasks^(0+128),w
  4592  026F  0023               	movlb	3	; select bank3
  4593  0270  00CC               	movwf	_USBDeviceState^(0+384)	;volatile
  4594                           
  4595                           ;usb_device.c: 699: (UIR &= 0xFE);
  4596  0271  30FE               	movlw	254
  4597  0272  0021               	movlb	1	; select bank1
  4598  0273  00E3               	movwf	??_USBDeviceTasks^(0+128)
  4599  0274  0863               	movf	??_USBDeviceTasks^(0+128),w
  4600  0275  003D               	movlb	29	; select bank29
  4601  0276  0590               	andwf	16,f	;volatile
  4602  0277                     i1l5466:	
  4603                           
  4604                           ;usb_device.c: 700: }
  4605                           ;usb_device.c: 705: if(UIRbits.IDLEIF && UIEbits.IDLEIE)
  4606  0277  1A10               	btfsc	16,4	;volatile
  4607  0278  1E12               	btfss	18,4	;volatile
  4608  0279  2A7D               	goto	i1l5472
  4609                           
  4610                           ;usb_device.c: 706: {
  4611                           ;usb_device.c: 712: USBSuspend();
  4612  027A  3189  2126  3182   	fcall	_USBSuspend
  4613  027D                     i1l5472:	
  4614                           
  4615                           ;usb_device.c: 714: }
  4616                           ;usb_device.c: 726: if(UIRbits.SOFIF)
  4617  027D  003D               	movlb	29	; select bank29
  4618  027E  1F10               	btfss	16,6	;volatile
  4619  027F  2AA7               	goto	i1l5488
  4620                           
  4621                           ;usb_device.c: 727: {
  4622                           ;usb_device.c: 729: if(UIEbits.SOFIE)
  4623  0280  1F12               	btfss	18,6	;volatile
  4624  0281  2A92               	goto	i1l5478
  4625                           
  4626                           ;usb_device.c: 730: {
  4627                           ;usb_device.c: 731: USER_USB_CALLBACK_EVENT_HANDLER(EVENT_SOF,0,1);
  4628  0282  3073               	movlw	115
  4629  0283  0020               	movlb	0	; select bank0
  4630  0284  00E2               	movwf	USER_USB_CALLBACK_EVENT_HANDLER@event
  4631  0285  3000               	movlw	0
  4632  0286  00E3               	movwf	USER_USB_CALLBACK_EVENT_HANDLER@event+1
  4633  0287  3000               	movlw	0
  4634  0288  00E4               	movwf	USER_USB_CALLBACK_EVENT_HANDLER@pdata
  4635  0289  3000               	movlw	0
  4636  028A  00E5               	movwf	USER_USB_CALLBACK_EVENT_HANDLER@pdata+1
  4637  028B  3001               	movlw	1
  4638  028C  00E6               	movwf	USER_USB_CALLBACK_EVENT_HANDLER@size
  4639  028D  3000               	movlw	0
  4640  028E  00E7               	movwf	USER_USB_CALLBACK_EVENT_HANDLER@size+1
  4641  028F  318A  2280  3182   	fcall	_USER_USB_CALLBACK_EVENT_HANDLER
  4642  0292                     i1l5478:	
  4643                           
  4644                           ;usb_device.c: 732: }
  4645                           ;usb_device.c: 733: (UIR &= 0xBF);
  4646  0292  30BF               	movlw	191
  4647  0293  0021               	movlb	1	; select bank1
  4648  0294  00E3               	movwf	??_USBDeviceTasks^(0+128)
  4649  0295  0863               	movf	??_USBDeviceTasks^(0+128),w
  4650  0296  003D               	movlb	29	; select bank29
  4651  0297  0590               	andwf	16,f	;volatile
  4652                           
  4653                           ;usb_device.c: 736: USBIncrement1msInternalTimers();
  4654  0298  3188  20B7  3182   	fcall	_USBIncrement1msInternalTimers
  4655                           
  4656                           ;usb_device.c: 753: if(USBStatusStageTimeoutCounter != 0u)
  4657  029B  0023               	movlb	3	; select bank3
  4658  029C  084F               	movf	_USBStatusStageTimeoutCounter^(0+384),w	;volatile
  4659  029D  1903               	btfsc	3,2
  4660  029E  2AA1               	goto	i1l273
  4661                           
  4662                           ;usb_device.c: 754: {
  4663                           ;usb_device.c: 755: USBStatusStageTimeoutCounter--;
  4664  029F  3001               	movlw	1
  4665  02A0  02CF               	subwf	_USBStatusStageTimeoutCounter^(0+384),f	;volatile
  4666  02A1                     i1l273:	
  4667                           
  4668                           ;usb_device.c: 756: }
  4669                           ;usb_device.c: 762: if(USBStatusStageTimeoutCounter == 0)
  4670  02A1  084F               	movf	_USBStatusStageTimeoutCounter^(0+384),w	;volatile
  4671  02A2  1D03               	btfss	3,2
  4672  02A3  2AA7               	goto	i1l5488
  4673                           
  4674                           ;usb_device.c: 763: {
  4675                           ;usb_device.c: 764: USBCtrlEPAllowStatusStage();
  4676  02A4  318E  263C  3182   	fcall	_USBCtrlEPAllowStatusStage
  4677  02A7                     i1l5488:	
  4678                           
  4679                           ;usb_device.c: 765: }
  4680                           ;usb_device.c: 767: }
  4681                           ;usb_device.c: 769: if(UIRbits.STALLIF && UIEbits.STALLIE)
  4682  02A7  003D               	movlb	29	; select bank29
  4683  02A8  1A90               	btfsc	16,5	;volatile
  4684  02A9  1E92               	btfss	18,5	;volatile
  4685  02AA  2AAE               	goto	i1l5494
  4686                           
  4687                           ;usb_device.c: 770: {
  4688                           ;usb_device.c: 771: USBStallHandler();
  4689  02AB  3189  2185  3182   	fcall	_USBStallHandler
  4690  02AE                     i1l5494:	
  4691                           
  4692                           ;usb_device.c: 772: }
  4693                           ;usb_device.c: 774: if(UIRbits.UERRIF && UIEbits.UERRIE)
  4694  02AE  003D               	movlb	29	; select bank29
  4695  02AF  1890               	btfsc	16,1	;volatile
  4696  02B0  1C92               	btfss	18,1	;volatile
  4697  02B1  2AC4               	goto	i1l5502
  4698                           
  4699                           ;usb_device.c: 775: {
  4700                           ;usb_device.c: 776: USER_USB_CALLBACK_EVENT_HANDLER(EVENT_BUS_ERROR,0,1);
  4701  02B2  30FF               	movlw	255
  4702  02B3  0020               	movlb	0	; select bank0
  4703  02B4  00E2               	movwf	USER_USB_CALLBACK_EVENT_HANDLER@event
  4704  02B5  307F               	movlw	127
  4705  02B6  00E3               	movwf	USER_USB_CALLBACK_EVENT_HANDLER@event+1
  4706  02B7  3000               	movlw	0
  4707  02B8  00E4               	movwf	USER_USB_CALLBACK_EVENT_HANDLER@pdata
  4708  02B9  3000               	movlw	0
  4709  02BA  00E5               	movwf	USER_USB_CALLBACK_EVENT_HANDLER@pdata+1
  4710  02BB  3001               	movlw	1
  4711  02BC  00E6               	movwf	USER_USB_CALLBACK_EVENT_HANDLER@size
  4712  02BD  3000               	movlw	0
  4713  02BE  00E7               	movwf	USER_USB_CALLBACK_EVENT_HANDLER@size+1
  4714  02BF  318A  2280  3182   	fcall	_USER_USB_CALLBACK_EVENT_HANDLER
  4715                           
  4716                           ;usb_device.c: 777: {UEIR = 0;};
  4717  02C2  003D               	movlb	29	; select bank29
  4718  02C3  0193               	clrf	19	;volatile
  4719  02C4                     i1l5502:	
  4720                           
  4721                           ;usb_device.c: 785: }
  4722                           ;usb_device.c: 792: if(USBDeviceState < DEFAULT_STATE)
  4723  02C4  3004               	movlw	4
  4724  02C5  0023               	movlb	3	; select bank3
  4725  02C6  024C               	subwf	_USBDeviceState^(0+384),w	;volatile
  4726  02C7  1803               	skipnc
  4727  02C8  2ACC               	goto	i1l277
  4728                           
  4729                           ;usb_device.c: 793: {
  4730                           ;usb_device.c: 794: PIR2bits.USBIF = 0;;
  4731  02C9  0020               	movlb	0	; select bank0
  4732  02CA  1112               	bcf	18,2	;volatile
  4733                           
  4734                           ;usb_device.c: 795: return;
  4735  02CB  0008               	return
  4736  02CC                     i1l277:	
  4737                           
  4738                           ;usb_device.c: 796: }
  4739                           ;usb_device.c: 801: if(UIEbits.TRNIE)
  4740  02CC  003D               	movlb	29	; select bank29
  4741  02CD  1D92               	btfss	18,3	;volatile
  4742  02CE  2B25               	goto	i1l278
  4743                           
  4744                           ;usb_device.c: 802: {
  4745                           ;usb_device.c: 803: for(i = 0; i < 4u; i++)
  4746  02CF  0021               	movlb	1	; select bank1
  4747  02D0  01E5               	clrf	USBDeviceTasks@i^(0+128)
  4748  02D1  3004               	movlw	4
  4749  02D2  0265               	subwf	USBDeviceTasks@i^(0+128),w
  4750  02D3  1803               	btfsc	3,0
  4751  02D4  2B25               	goto	i1l278
  4752  02D5                     i1l279:	
  4753                           
  4754                           ;usb_device.c: 804: {
  4755                           ;usb_device.c: 805: if(UIRbits.TRNIF)
  4756  02D5  003D               	movlb	29	; select bank29
  4757  02D6  1D90               	btfss	16,3	;volatile
  4758  02D7  2B25               	goto	i1l278
  4759                           
  4760                           ;usb_device.c: 806: {
  4761                           ;usb_device.c: 808: USTATcopy.Val = USTAT;
  4762  02D8  080F               	movf	15,w	;volatile
  4763  02D9  0021               	movlb	1	; select bank1
  4764  02DA  00E3               	movwf	??_USBDeviceTasks^(0+128)
  4765  02DB  0863               	movf	??_USBDeviceTasks^(0+128),w
  4766  02DC  0023               	movlb	3	; select bank3
  4767  02DD  00EE               	movwf	_USTATcopy^(0+384)	;volatile
  4768                           
  4769                           ;usb_device.c: 809: endpoint_number = USTATcopy.endpoint_number;
  4770  02DE  0C6E               	rrf	_USTATcopy^(0+384),w	;volatile
  4771  02DF  0021               	movlb	1	; select bank1
  4772  02E0  00E3               	movwf	??_USBDeviceTasks^(0+128)
  4773  02E1  0CE3               	rrf	??_USBDeviceTasks^(0+128),f
  4774  02E2  0C63               	rrf	??_USBDeviceTasks^(0+128),w
  4775  02E3  390F               	andlw	15
  4776  02E4  00E4               	movwf	(??_USBDeviceTasks+1)^(0+128)
  4777  02E5  0864               	movf	(??_USBDeviceTasks+1)^(0+128),w
  4778  02E6  0023               	movlb	3	; select bank3
  4779  02E7  00D8               	movwf	_endpoint_number^(0+384)	;volatile
  4780                           
  4781                           ;usb_device.c: 811: (UIR &= 0xF7);
  4782  02E8  30F7               	movlw	247
  4783  02E9  0021               	movlb	1	; select bank1
  4784  02EA  00E3               	movwf	??_USBDeviceTasks^(0+128)
  4785  02EB  0863               	movf	??_USBDeviceTasks^(0+128),w
  4786  02EC  003D               	movlb	29	; select bank29
  4787  02ED  0590               	andwf	16,f	;volatile
  4788                           
  4789                           ;usb_device.c: 816: if(USTATcopy.direction == 0)
  4790  02EE  0023               	movlb	3	; select bank3
  4791  02EF  196E               	btfsc	_USTATcopy^(0+384),2	;volatile
  4792  02F0  2AF4               	goto	i1l5522
  4793                           
  4794                           ;usb_device.c: 817: {
  4795                           ;usb_device.c: 818: ep_data_out[endpoint_number].bits.ping_pong_state ^= 1;
  4796  02F1  0858               	movf	_endpoint_number^(0+384),w	;volatile
  4797  02F2  3EB2               	addlw	(low (_ep_data_out| (0+256)))& (0+255)
  4798  02F3  2AF7               	goto	L5
  4799  02F4                     i1l5522:	
  4800                           ;usb_device.c: 819: }
  4801                           
  4802                           
  4803                           ;usb_device.c: 820: else
  4804                           ;usb_device.c: 821: {
  4805                           ;usb_device.c: 822: ep_data_in[endpoint_number].bits.ping_pong_state ^= 1;
  4806  02F4  0023               	movlb	3	; select bank3
  4807  02F5  0858               	movf	_endpoint_number^(0+384),w	;volatile
  4808  02F6  3EAF               	addlw	(low (_ep_data_in| (0+256)))& (0+255)
  4809  02F7                     L5:	
  4810  02F7  0086               	movwf	6
  4811  02F8  3001               	movlw	1	; select bank3/4
  4812  02F9  0087               	movwf	7
  4813  02FA  0801               	movf	1,w
  4814  02FB  3901               	andlw	1
  4815  02FC  0021               	movlb	1	; select bank1
  4816  02FD  00E3               	movwf	??_USBDeviceTasks^(0+128)
  4817  02FE  3001               	movlw	1
  4818  02FF  06E3               	xorwf	??_USBDeviceTasks^(0+128),f
  4819  0300  0801               	movf	1,w
  4820  0301  0663               	xorwf	??_USBDeviceTasks^(0+128),w
  4821  0302  39FE               	andlw	-2
  4822  0303  0663               	xorwf	??_USBDeviceTasks^(0+128),w
  4823  0304  0081               	movwf	1
  4824                           
  4825                           ;usb_device.c: 823: }
  4826                           ;usb_device.c: 828: if(endpoint_number == 0)
  4827  0305  0023               	movlb	3	; select bank3
  4828  0306  0858               	movf	_endpoint_number^(0+384),w	;volatile
  4829  0307  1D03               	btfss	3,2
  4830  0308  2B0D               	goto	i1l5528
  4831                           
  4832                           ;usb_device.c: 829: {
  4833                           ;usb_device.c: 830: USBCtrlEPService();
  4834  0309  318D  2525  3182   	fcall	_USBCtrlEPService
  4835                           
  4836                           ;usb_device.c: 831: }
  4837  030C  2B1C               	goto	i1l5530
  4838  030D                     i1l5528:	
  4839                           
  4840                           ;usb_device.c: 832: else
  4841                           ;usb_device.c: 833: {
  4842                           ;usb_device.c: 834: USER_USB_CALLBACK_EVENT_HANDLER(EVENT_TRANSFER,(uint8_t*)&USTATcopy.
      +                          Val,0);
  4843  030D  3072               	movlw	114
  4844  030E  0020               	movlb	0	; select bank0
  4845  030F  00E2               	movwf	USER_USB_CALLBACK_EVENT_HANDLER@event
  4846  0310  3000               	movlw	0
  4847  0311  00E3               	movwf	USER_USB_CALLBACK_EVENT_HANDLER@event+1
  4848  0312  30EE               	movlw	low _USTATcopy
  4849  0313  00E4               	movwf	USER_USB_CALLBACK_EVENT_HANDLER@pdata
  4850  0314  3001               	movlw	high _USTATcopy
  4851  0315  00E5               	movwf	USER_USB_CALLBACK_EVENT_HANDLER@pdata+1
  4852  0316  3000               	movlw	0
  4853  0317  00E6               	movwf	USER_USB_CALLBACK_EVENT_HANDLER@size
  4854  0318  00E7               	movwf	USER_USB_CALLBACK_EVENT_HANDLER@size+1
  4855  0319  318A  2280  3182   	fcall	_USER_USB_CALLBACK_EVENT_HANDLER
  4856  031C                     i1l5530:	
  4857                           ;usb_device.c: 837: else
  4858                           ;usb_device.c: 838: {
  4859                           ;usb_device.c: 839: break;
  4860                           
  4861                           ;usb_device.c: 835: }
  4862                           ;usb_device.c: 836: }
  4863                           
  4864  031C  3001               	movlw	1
  4865  031D  0021               	movlb	1	; select bank1
  4866  031E  00E3               	movwf	??_USBDeviceTasks^(0+128)
  4867  031F  0863               	movf	??_USBDeviceTasks^(0+128),w
  4868  0320  07E5               	addwf	USBDeviceTasks@i^(0+128),f
  4869  0321  3004               	movlw	4
  4870  0322  0265               	subwf	USBDeviceTasks@i^(0+128),w
  4871  0323  1C03               	skipc
  4872  0324  2AD5               	goto	i1l279
  4873  0325                     i1l278:	
  4874                           
  4875                           ;usb_device.c: 840: }
  4876                           ;usb_device.c: 841: }
  4877                           ;usb_device.c: 842: }
  4878                           ;usb_device.c: 844: PIR2bits.USBIF = 0;;
  4879  0325  0020               	movlb	0	; select bank0
  4880  0326  1112               	bcf	18,2	;volatile
  4881  0327  0008               	return
  4882  0328                     __end_of_USBDeviceTasks:	
  4883                           
  4884                           	psect	text14
  4885  04A3                     __ptext14:	
  4886 ;; *************** function i1_USBDeviceInit *****************
  4887 ;; Defined at:
  4888 ;;		line 295 in file "/opt/microchip/mla/framework/usb/src/usb_device.c"
  4889 ;; Parameters:    Size  Location     Type
  4890 ;;		None
  4891 ;; Auto vars:     Size  Location     Type
  4892 ;;  USBDeviceIni    2    1[COMMON] PTR unsigned char 
  4893 ;;		 -> UEP1(1), 
  4894 ;;  USBDeviceIni    1    4[COMMON] unsigned char 
  4895 ;;  USBDeviceIni    1    3[COMMON] unsigned char 
  4896 ;; Return value:  Size  Location     Type
  4897 ;;		None               void
  4898 ;; Registers used:
  4899 ;;		wreg, fsr1l, fsr1h, status,2, status,0
  4900 ;; Tracked objects:
  4901 ;;		On entry : 0/0
  4902 ;;		On exit  : 0/0
  4903 ;;		Unchanged: 0/0
  4904 ;; Data sizes:     COMMON  BANK0h   BANK1   BANK2   BANK3   BANK4   BANK5   BANK6   BANK7   BANK8   BANK9  BANK10  BANK1
      +1  BANK12
  4905 ;;      Params:         0       0       0       0       0       0       0       0       0       0       0       0       
      +0       0
  4906 ;;      Locals:         4       0       0       0       0       0       0       0       0       0       0       0       
      +0       0
  4907 ;;      Temps:          1       0       0       0       0       0       0       0       0       0       0       0       
      +0       0
  4908 ;;      Totals:         5       0       0       0       0       0       0       0       0       0       0       0       
      +0       0
  4909 ;;Total ram usage:        5 bytes
  4910 ;; Hardware stack levels used:    1
  4911 ;; This function calls:
  4912 ;;		Nothing
  4913 ;; This function is called by:
  4914 ;;		_USBDeviceTasks
  4915 ;; This function uses a non-reentrant model
  4916 ;;
  4917                           
  4918                           
  4919                           ;psect for function i1_USBDeviceInit
  4920  04A3                     i1_USBDeviceInit:	
  4921                           
  4922                           ;usb_device.c: 297: uint8_t i;
  4923                           ;usb_device.c: 299: {PIE2bits.USBIE = 0;};
  4924                           
  4925                           ;incstack = 0
  4926                           ; Regs used in i1_USBDeviceInit: [wreg+fsr1l+fsr1h+status,2+status,0]
  4927  04A3  0021               	movlb	1	; select bank1
  4928  04A4  1112               	bcf	18,2	;volatile
  4929                           
  4930                           ;usb_device.c: 303: ;
  4931                           ;usb_device.c: 306: {UEIR = 0;};
  4932  04A5  003D               	movlb	29	; select bank29
  4933  04A6  0193               	clrf	19	;volatile
  4934                           
  4935                           ;usb_device.c: 309: {UIR = 0;};
  4936  04A7  0190               	clrf	16	;volatile
  4937                           
  4938                           ;usb_device.c: 312: UEP0 = 0;
  4939  04A8  0198               	clrf	24	;volatile
  4940                           
  4941                           ;usb_device.c: 314: { uint8_t i; uint8_t* p = (uint8_t*)&UEP1; for(i=0;i<2;i++) *p++ = 0
      +                          ; };
  4942  04A9  300E               	movlw	14
  4943  04AA  00F2               	movwf	i1USBDeviceInit@p+1
  4944  04AB  3099               	movlw	153
  4945  04AC  00F1               	movwf	i1USBDeviceInit@p
  4946  04AD  01F3               	clrf	i1USBDeviceInit@i_1187
  4947  04AE  3002               	movlw	2
  4948  04AF  0273               	subwf	i1USBDeviceInit@i_1187,w
  4949  04B0  1803               	btfsc	3,0
  4950  04B1  2CC3               	goto	i1l5294
  4951  04B2                     i1l5286:	
  4952  04B2  0871               	movf	i1USBDeviceInit@p,w
  4953  04B3  0086               	movwf	6
  4954  04B4  0872               	movf	i1USBDeviceInit@p+1,w
  4955  04B5  0087               	movwf	7
  4956  04B6  0181               	clrf	1
  4957  04B7  3001               	movlw	1
  4958  04B8  07F1               	addwf	i1USBDeviceInit@p,f
  4959  04B9  3000               	movlw	0
  4960  04BA  3DF2               	addwfc	i1USBDeviceInit@p+1,f
  4961  04BB  3001               	movlw	1
  4962  04BC  00F0               	movwf	??i1_USBDeviceInit
  4963  04BD  0870               	movf	??i1_USBDeviceInit,w
  4964  04BE  07F3               	addwf	i1USBDeviceInit@i_1187,f
  4965  04BF  3002               	movlw	2
  4966  04C0  0273               	subwf	i1USBDeviceInit@i_1187,w
  4967  04C1  1C03               	skipc
  4968  04C2  2CB2               	goto	i1l5286
  4969  04C3                     i1l5294:	
  4970                           
  4971                           ;usb_device.c: 316: { UCFG = 0x10 | 0x00 | 0x04 | 0x02; UEIE = 0x9F; UIE = 0x39 | 0x40 |
      +                           0x02; };
  4972  04C3  3016               	movlw	22
  4973  04C4  003D               	movlb	29	; select bank29
  4974  04C5  0091               	movwf	17	;volatile
  4975  04C6  309F               	movlw	159
  4976  04C7  0097               	movwf	23	;volatile
  4977  04C8  307B               	movlw	123
  4978  04C9  0092               	movwf	18	;volatile
  4979                           
  4980                           ;usb_device.c: 319: ;
  4981                           ;usb_device.c: 322: ;
  4982                           ;usb_device.c: 325: for(i = 0; i < (sizeof(BDT)/sizeof(BDT_ENTRY)); i++)
  4983  04CA  01F4               	clrf	i1USBDeviceInit@i
  4984  04CB  300C               	movlw	12
  4985  04CC  0274               	subwf	i1USBDeviceInit@i,w
  4986  04CD  1803               	btfsc	3,0
  4987  04CE  2CE8               	goto	i1l256
  4988  04CF                     i1l5302:	
  4989                           
  4990                           ;usb_device.c: 326: {
  4991                           ;usb_device.c: 327: BDT[i].Val = 0x00;
  4992  04CF  0874               	movf	i1USBDeviceInit@i,w
  4993  04D0  00F0               	movwf	??i1_USBDeviceInit
  4994  04D1  3001               	movlw	1
  4995  04D2                     u548_25:	
  4996  04D2  35F0               	lslf	??i1_USBDeviceInit,f
  4997  04D3  3EFF               	addlw	-1
  4998  04D4  1D03               	skipz
  4999  04D5  2CD2               	goto	u548_25
  5000  04D6  3570               	lslf	??i1_USBDeviceInit,w
  5001  04D7  3E20               	addlw	32
  5002  04D8  0086               	movwf	6
  5003  04D9  0187               	clrf	7
  5004  04DA  3000               	movlw	0
  5005  04DB  3FC0               	movwi [0]fsr1
  5006  04DC  3000               	movlw	0
  5007  04DD  3FC1               	movwi [1]fsr1
  5008  04DE  3FC2               	movwi [2]fsr1
  5009  04DF  3FC3               	movwi [3]fsr1
  5010  04E0  3001               	movlw	1
  5011  04E1  00F0               	movwf	??i1_USBDeviceInit
  5012  04E2  0870               	movf	??i1_USBDeviceInit,w
  5013  04E3  07F4               	addwf	i1USBDeviceInit@i,f
  5014  04E4  300C               	movlw	12
  5015  04E5  0274               	subwf	i1USBDeviceInit@i,w
  5016  04E6  1C03               	skipc
  5017  04E7  2CCF               	goto	i1l5302
  5018  04E8                     i1l256:	
  5019                           
  5020                           ;usb_device.c: 328: }
  5021                           ;usb_device.c: 331: UCONbits.PPBRST = 1;
  5022  04E8  003D               	movlb	29	; select bank29
  5023  04E9  170E               	bsf	14,6	;volatile
  5024                           
  5025                           ;usb_device.c: 334: UADDR = 0x00;
  5026  04EA  0196               	clrf	22	;volatile
  5027                           
  5028                           ;usb_device.c: 337: UCONbits.PKTDIS = 0;
  5029  04EB  120E               	bcf	14,4	;volatile
  5030                           
  5031                           ;usb_device.c: 340: UCONbits.PPBRST = 0;
  5032  04EC  130E               	bcf	14,6	;volatile
  5033  04ED                     i1l5314:	
  5034                           ;usb_device.c: 343: do
  5035                           
  5036                           
  5037                           ;usb_device.c: 344: {
  5038                           ;usb_device.c: 345: (UIR &= 0xF7);
  5039  04ED  30F7               	movlw	247
  5040  04EE  00F0               	movwf	??i1_USBDeviceInit
  5041  04EF  0870               	movf	??i1_USBDeviceInit,w
  5042  04F0  0590               	andwf	16,f	;volatile
  5043                           
  5044                           ;usb_device.c: 347: inPipes[0].info.Val = 0;
  5045  04F1  0021               	movlb	1	; select bank1
  5046  04F2  01E9               	clrf	(_inPipes^(0+128)+2)	;volatile
  5047                           
  5048                           ;usb_device.c: 348: outPipes[0].info.Val = 0;
  5049  04F3  0023               	movlb	3	; select bank3
  5050  04F4  01A2               	clrf	(_outPipes^(0+384)+2)	;volatile
  5051                           
  5052                           ;usb_device.c: 349: outPipes[0].wCount.Val = 0;
  5053  04F5  01A3               	clrf	(_outPipes^(0+384)+3)	;volatile
  5054  04F6  01A4               	clrf	((_outPipes+1)^(0+384)+3)	;volatile
  5055                           
  5056                           ;usb_device.c: 350: }while(UIRbits.TRNIF == 1);
  5057  04F7  003D               	movlb	29	; select bank29
  5058  04F8  1990               	btfsc	16,3	;volatile
  5059  04F9  2CED               	goto	i1l5314
  5060                           
  5061                           ;usb_device.c: 354: USBStatusStageEnabledFlag1 = 1;
  5062  04FA  3001               	movlw	1
  5063  04FB  00F0               	movwf	??i1_USBDeviceInit
  5064  04FC  0870               	movf	??i1_USBDeviceInit,w
  5065  04FD  0023               	movlb	3	; select bank3
  5066  04FE  00CD               	movwf	_USBStatusStageEnabledFlag1^(0+384)	;volatile
  5067                           
  5068                           ;usb_device.c: 355: USBStatusStageEnabledFlag2 = 1;
  5069  04FF  3001               	movlw	1
  5070  0500  00F0               	movwf	??i1_USBDeviceInit
  5071  0501  0870               	movf	??i1_USBDeviceInit,w
  5072  0502  00CE               	movwf	_USBStatusStageEnabledFlag2^(0+384)	;volatile
  5073                           
  5074                           ;usb_device.c: 357: USBDeferINDataStagePackets = 0;
  5075  0503  01C9               	clrf	_USBDeferINDataStagePackets^(0+384)	;volatile
  5076                           
  5077                           ;usb_device.c: 358: USBDeferOUTDataStagePackets = 0;
  5078  0504  01CA               	clrf	_USBDeferOUTDataStagePackets^(0+384)	;volatile
  5079                           
  5080                           ;usb_device.c: 359: USBBusIsSuspended = 0;
  5081  0505  01C8               	clrf	_USBBusIsSuspended^(0+384)	;volatile
  5082                           
  5083                           ;usb_device.c: 363: for(i = 0; i < (uint8_t)(2+1u); i++)
  5084  0506  01F4               	clrf	i1USBDeviceInit@i
  5085  0507  3003               	movlw	3
  5086  0508  0274               	subwf	i1USBDeviceInit@i,w
  5087  0509  1803               	btfsc	3,0
  5088  050A  2D2B               	goto	i1l5342
  5089  050B                     i1l5336:	
  5090                           
  5091                           ;usb_device.c: 364: {
  5092                           ;usb_device.c: 365: pBDTEntryIn[i] = 0u;
  5093  050B  0874               	movf	i1USBDeviceInit@i,w
  5094  050C  3EB5               	addlw	(low (_pBDTEntryIn| (0+256)))& (0+255)
  5095  050D  0086               	movwf	6
  5096  050E  3001               	movlw	1	; select bank3/4
  5097  050F  0087               	movwf	7
  5098  0510  0181               	clrf	1
  5099                           
  5100                           ;usb_device.c: 366: pBDTEntryOut[i] = 0u;
  5101  0511  0874               	movf	i1USBDeviceInit@i,w
  5102  0512  3EB8               	addlw	(low (_pBDTEntryOut| (0+256)))& (0+255)
  5103  0513  0086               	movwf	6
  5104  0514  3001               	movlw	1	; select bank3/4
  5105  0515  0087               	movwf	7
  5106  0516  0181               	clrf	1
  5107                           
  5108                           ;usb_device.c: 367: ep_data_in[i].Val = 0u;
  5109  0517  0874               	movf	i1USBDeviceInit@i,w
  5110  0518  3EAF               	addlw	(low (_ep_data_in| (0+256)))& (0+255)
  5111  0519  0086               	movwf	6
  5112  051A  3001               	movlw	1	; select bank3/4
  5113  051B  0087               	movwf	7
  5114  051C  0181               	clrf	1
  5115                           
  5116                           ;usb_device.c: 368: ep_data_out[i].Val = 0u;
  5117  051D  0874               	movf	i1USBDeviceInit@i,w
  5118  051E  3EB2               	addlw	(low (_ep_data_out| (0+256)))& (0+255)
  5119  051F  0086               	movwf	6
  5120  0520  3001               	movlw	1	; select bank3/4
  5121  0521  0087               	movwf	7
  5122  0522  0181               	clrf	1
  5123  0523  3001               	movlw	1
  5124  0524  00F0               	movwf	??i1_USBDeviceInit
  5125  0525  0870               	movf	??i1_USBDeviceInit,w
  5126  0526  07F4               	addwf	i1USBDeviceInit@i,f
  5127  0527  3003               	movlw	3
  5128  0528  0274               	subwf	i1USBDeviceInit@i,w
  5129  0529  1C03               	skipc
  5130  052A  2D0B               	goto	i1l5336
  5131  052B                     i1l5342:	
  5132                           
  5133                           ;usb_device.c: 369: }
  5134                           ;usb_device.c: 372: pBDTEntryIn[0] = (volatile BDT_ENTRY*)&BDT[2];
  5135  052B  3028               	movlw	40
  5136  052C  00F0               	movwf	??i1_USBDeviceInit
  5137  052D  0870               	movf	??i1_USBDeviceInit,w
  5138  052E  0023               	movlb	3	; select bank3
  5139  052F  00B5               	movwf	_pBDTEntryIn^(0+384)
  5140                           
  5141                           ;usb_device.c: 374: UEP0 = 0x06|0x10;
  5142  0530  3016               	movlw	22
  5143  0531  003D               	movlb	29	; select bank29
  5144  0532  0098               	movwf	24	;volatile
  5145                           
  5146                           ;usb_device.c: 376: BDT[0].ADR = (((uint16_t)(&SetupPkt)) & 0x7FFF);
  5147  0533  3000               	movlw	0
  5148  0534  0020               	movlb	0	; select bank0
  5149  0535  00A3               	movwf	35	;volatile
  5150  0536  3050               	movlw	80
  5151  0537  00A2               	movwf	34	;volatile
  5152                           
  5153                           ;usb_device.c: 377: BDT[0].CNT = 8;
  5154  0538  3008               	movlw	8
  5155  0539  00A1               	movwf	33	;volatile
  5156                           
  5157                           ;usb_device.c: 378: BDT[0].STAT.Val = 0x00|0x04;
  5158  053A  3004               	movlw	4
  5159  053B  00F0               	movwf	??i1_USBDeviceInit
  5160  053C  0870               	movf	??i1_USBDeviceInit,w
  5161  053D  00A0               	movwf	32	;volatile
  5162                           
  5163                           ;usb_device.c: 379: BDT[0].STAT.Val |= 0x80;
  5164  053E  17A0               	bsf	32,7	;volatile
  5165                           
  5166                           ;usb_device.c: 382: USBActiveConfiguration = 0;
  5167  053F  0023               	movlb	3	; select bank3
  5168  0540  01ED               	clrf	_USBActiveConfiguration^(0+384)	;volatile
  5169                           
  5170                           ;usb_device.c: 384: USB1msTickCount = 0;
  5171  0541  3000               	movlw	0
  5172  0542  00AE               	movwf	(_USB1msTickCount+3)^(0+384)	;volatile
  5173  0543  3000               	movlw	0
  5174  0544  00AD               	movwf	(_USB1msTickCount+2)^(0+384)	;volatile
  5175  0545  3000               	movlw	0
  5176  0546  00AC               	movwf	(_USB1msTickCount+1)^(0+384)	;volatile
  5177  0547  3000               	movlw	0
  5178  0548  00AB               	movwf	_USB1msTickCount^(0+384)	;volatile
  5179                           
  5180                           ;usb_device.c: 385: USBTicksSinceSuspendEnd = 0;
  5181  0549  01D0               	clrf	_USBTicksSinceSuspendEnd^(0+384)	;volatile
  5182                           
  5183                           ;usb_device.c: 388: USBDeviceState = DETACHED_STATE;
  5184  054A  01CC               	clrf	_USBDeviceState^(0+384)	;volatile
  5185  054B  0008               	return
  5186  054C                     __end_ofi1_USBDeviceInit:	
  5187                           
  5188                           	psect	text15
  5189  0965                     __ptext15:	
  5190 ;; *************** function _USBWakeFromSuspend *****************
  5191 ;; Defined at:
  5192 ;;		line 2321 in file "/opt/microchip/mla/framework/usb/src/usb_device.c"
  5193 ;; Parameters:    Size  Location     Type
  5194 ;;		None
  5195 ;; Auto vars:     Size  Location     Type
  5196 ;;		None
  5197 ;; Return value:  Size  Location     Type
  5198 ;;		None               void
  5199 ;; Registers used:
  5200 ;;		wreg, fsr0l, fsr0h, fsr1l, fsr1h, status,2, status,0, pclath, cstack
  5201 ;; Tracked objects:
  5202 ;;		On entry : 0/0
  5203 ;;		On exit  : 0/0
  5204 ;;		Unchanged: 0/0
  5205 ;; Data sizes:     COMMON  BANK0h   BANK1   BANK2   BANK3   BANK4   BANK5   BANK6   BANK7   BANK8   BANK9  BANK10  BANK1
      +1  BANK12
  5206 ;;      Params:         0       0       0       0       0       0       0       0       0       0       0       0       
      +0       0
  5207 ;;      Locals:         0       0       0       0       0       0       0       0       0       0       0       0       
      +0       0
  5208 ;;      Temps:          0       1       0       0       0       0       0       0       0       0       0       0       
      +0       0
  5209 ;;      Totals:         0       1       0       0       0       0       0       0       0       0       0       0       
      +0       0
  5210 ;;Total ram usage:        1 bytes
  5211 ;; Hardware stack levels used:    1
  5212 ;; Hardware stack levels required when called:    5
  5213 ;; This function calls:
  5214 ;;		_USER_USB_CALLBACK_EVENT_HANDLER
  5215 ;; This function is called by:
  5216 ;;		_USBDeviceTasks
  5217 ;; This function uses a non-reentrant model
  5218 ;;
  5219                           
  5220                           
  5221                           ;psect for function _USBWakeFromSuspend
  5222  0965                     _USBWakeFromSuspend:	
  5223                           
  5224                           ;usb_device.c: 2323: USBBusIsSuspended = 0;
  5225                           
  5226                           ;incstack = 0
  5227                           ; Regs used in _USBWakeFromSuspend: [wreg-fsr1h+status,2+status,0+pclath+cstack]
  5228  0965  0023               	movlb	3	; select bank3
  5229  0966  01C8               	clrf	_USBBusIsSuspended^(0+384)	;volatile
  5230                           
  5231                           ;usb_device.c: 2329: USER_USB_CALLBACK_EVENT_HANDLER(EVENT_RESUME,0,0);
  5232  0967  3074               	movlw	116
  5233  0968  0020               	movlb	0	; select bank0
  5234  0969  00E2               	movwf	USER_USB_CALLBACK_EVENT_HANDLER@event
  5235  096A  3000               	movlw	0
  5236  096B  00E3               	movwf	USER_USB_CALLBACK_EVENT_HANDLER@event+1
  5237  096C  3000               	movlw	0
  5238  096D  00E4               	movwf	USER_USB_CALLBACK_EVENT_HANDLER@pdata
  5239  096E  3000               	movlw	0
  5240  096F  00E5               	movwf	USER_USB_CALLBACK_EVENT_HANDLER@pdata+1
  5241  0970  3000               	movlw	0
  5242  0971  00E6               	movwf	USER_USB_CALLBACK_EVENT_HANDLER@size
  5243  0972  00E7               	movwf	USER_USB_CALLBACK_EVENT_HANDLER@size+1
  5244  0973  318A  2280  3189   	fcall	_USER_USB_CALLBACK_EVENT_HANDLER
  5245                           
  5246                           ;usb_device.c: 2336: UCONbits.SUSPND = 0;
  5247  0976  003D               	movlb	29	; select bank29
  5248  0977  108E               	bcf	14,1	;volatile
  5249                           
  5250                           ;usb_device.c: 2341: UIEbits.ACTVIE = 0;
  5251  0978  1112               	bcf	18,2	;volatile
  5252  0979                     i1l5184:	
  5253                           ;usb_device.c: 2359: while(UIRbits.ACTVIF)
  5254                           
  5255  0979  1D10               	btfss	16,2	;volatile
  5256  097A  2982               	goto	i1l5186
  5257                           
  5258                           ;usb_device.c: 2361: {
  5259                           ;usb_device.c: 2362: (UIR &= 0xFB);
  5260  097B  30FB               	movlw	251
  5261  097C  0020               	movlb	0	; select bank0
  5262  097D  00E8               	movwf	??_USBWakeFromSuspend
  5263  097E  0868               	movf	??_USBWakeFromSuspend,w
  5264  097F  003D               	movlb	29	; select bank29
  5265  0980  0590               	andwf	16,f	;volatile
  5266  0981  2979               	goto	i1l5184
  5267  0982                     i1l5186:	
  5268                           
  5269                           ;usb_device.c: 2363: }
  5270                           ;usb_device.c: 2365: USBTicksSinceSuspendEnd = 0;
  5271  0982  0023               	movlb	3	; select bank3
  5272  0983  01D0               	clrf	_USBTicksSinceSuspendEnd^(0+384)	;volatile
  5273  0984  0008               	return
  5274  0985                     __end_of_USBWakeFromSuspend:	
  5275                           
  5276                           	psect	text16
  5277  0926                     __ptext16:	
  5278 ;; *************** function _USBSuspend *****************
  5279 ;; Defined at:
  5280 ;;		line 2263 in file "/opt/microchip/mla/framework/usb/src/usb_device.c"
  5281 ;; Parameters:    Size  Location     Type
  5282 ;;		None
  5283 ;; Auto vars:     Size  Location     Type
  5284 ;;		None
  5285 ;; Return value:  Size  Location     Type
  5286 ;;		None               void
  5287 ;; Registers used:
  5288 ;;		wreg, fsr0l, fsr0h, fsr1l, fsr1h, status,2, status,0, pclath, cstack
  5289 ;; Tracked objects:
  5290 ;;		On entry : 0/0
  5291 ;;		On exit  : 0/0
  5292 ;;		Unchanged: 0/0
  5293 ;; Data sizes:     COMMON  BANK0h   BANK1   BANK2   BANK3   BANK4   BANK5   BANK6   BANK7   BANK8   BANK9  BANK10  BANK1
      +1  BANK12
  5294 ;;      Params:         0       0       0       0       0       0       0       0       0       0       0       0       
      +0       0
  5295 ;;      Locals:         0       0       0       0       0       0       0       0       0       0       0       0       
      +0       0
  5296 ;;      Temps:          0       1       0       0       0       0       0       0       0       0       0       0       
      +0       0
  5297 ;;      Totals:         0       1       0       0       0       0       0       0       0       0       0       0       
      +0       0
  5298 ;;Total ram usage:        1 bytes
  5299 ;; Hardware stack levels used:    1
  5300 ;; Hardware stack levels required when called:    5
  5301 ;; This function calls:
  5302 ;;		_USER_USB_CALLBACK_EVENT_HANDLER
  5303 ;; This function is called by:
  5304 ;;		_USBDeviceTasks
  5305 ;; This function uses a non-reentrant model
  5306 ;;
  5307                           
  5308                           
  5309                           ;psect for function _USBSuspend
  5310  0926                     _USBSuspend:	
  5311                           
  5312                           ;usb_device.c: 2288: UIEbits.ACTVIE = 1;
  5313                           
  5314                           ;incstack = 0
  5315                           ; Regs used in _USBSuspend: [wreg-fsr1h+status,2+status,0+pclath+cstack]
  5316  0926  003D               	movlb	29	; select bank29
  5317  0927  1512               	bsf	18,2	;volatile
  5318                           
  5319                           ;usb_device.c: 2289: (UIR &= 0xEF);
  5320  0928  30EF               	movlw	239
  5321  0929  0020               	movlb	0	; select bank0
  5322  092A  00E8               	movwf	??_USBSuspend
  5323  092B  0868               	movf	??_USBSuspend,w
  5324  092C  003D               	movlb	29	; select bank29
  5325  092D  0590               	andwf	16,f	;volatile
  5326                           
  5327                           ;usb_device.c: 2292: UCONbits.SUSPND = 1;
  5328  092E  148E               	bsf	14,1	;volatile
  5329                           
  5330                           ;usb_device.c: 2295: USBBusIsSuspended = 1;
  5331  092F  3001               	movlw	1
  5332  0930  0020               	movlb	0	; select bank0
  5333  0931  00E8               	movwf	??_USBSuspend
  5334  0932  0868               	movf	??_USBSuspend,w
  5335  0933  0023               	movlb	3	; select bank3
  5336  0934  00C8               	movwf	_USBBusIsSuspended^(0+384)	;volatile
  5337                           
  5338                           ;usb_device.c: 2296: USBTicksSinceSuspendEnd = 0;
  5339  0935  01D0               	clrf	_USBTicksSinceSuspendEnd^(0+384)	;volatile
  5340                           
  5341                           ;usb_device.c: 2303: USER_USB_CALLBACK_EVENT_HANDLER(EVENT_SUSPEND,0,0);
  5342  0936  3075               	movlw	117
  5343  0937  0020               	movlb	0	; select bank0
  5344  0938  00E2               	movwf	USER_USB_CALLBACK_EVENT_HANDLER@event
  5345  0939  3000               	movlw	0
  5346  093A  00E3               	movwf	USER_USB_CALLBACK_EVENT_HANDLER@event+1
  5347  093B  3000               	movlw	0
  5348  093C  00E4               	movwf	USER_USB_CALLBACK_EVENT_HANDLER@pdata
  5349  093D  3000               	movlw	0
  5350  093E  00E5               	movwf	USER_USB_CALLBACK_EVENT_HANDLER@pdata+1
  5351  093F  3000               	movlw	0
  5352  0940  00E6               	movwf	USER_USB_CALLBACK_EVENT_HANDLER@size
  5353  0941  00E7               	movwf	USER_USB_CALLBACK_EVENT_HANDLER@size+1
  5354  0942  318A  2280         	fcall	_USER_USB_CALLBACK_EVENT_HANDLER
  5355  0944  0008               	return
  5356  0945                     __end_of_USBSuspend:	
  5357                           
  5358                           	psect	text17
  5359  0985                     __ptext17:	
  5360 ;; *************** function _USBStallHandler *****************
  5361 ;; Defined at:
  5362 ;;		line 2220 in file "/opt/microchip/mla/framework/usb/src/usb_device.c"
  5363 ;; Parameters:    Size  Location     Type
  5364 ;;		None
  5365 ;; Auto vars:     Size  Location     Type
  5366 ;;		None
  5367 ;; Return value:  Size  Location     Type
  5368 ;;		None               void
  5369 ;; Registers used:
  5370 ;;		wreg, fsr1l, fsr1h, status,2, status,0
  5371 ;; Tracked objects:
  5372 ;;		On entry : 0/0
  5373 ;;		On exit  : 0/0
  5374 ;;		Unchanged: 0/0
  5375 ;; Data sizes:     COMMON  BANK0h   BANK1   BANK2   BANK3   BANK4   BANK5   BANK6   BANK7   BANK8   BANK9  BANK10  BANK1
      +1  BANK12
  5376 ;;      Params:         0       0       0       0       0       0       0       0       0       0       0       0       
      +0       0
  5377 ;;      Locals:         0       0       0       0       0       0       0       0       0       0       0       0       
      +0       0
  5378 ;;      Temps:          1       0       0       0       0       0       0       0       0       0       0       0       
      +0       0
  5379 ;;      Totals:         1       0       0       0       0       0       0       0       0       0       0       0       
      +0       0
  5380 ;;Total ram usage:        1 bytes
  5381 ;; Hardware stack levels used:    1
  5382 ;; This function calls:
  5383 ;;		Nothing
  5384 ;; This function is called by:
  5385 ;;		_USBDeviceTasks
  5386 ;; This function uses a non-reentrant model
  5387 ;;
  5388                           
  5389                           
  5390                           ;psect for function _USBStallHandler
  5391  0985                     _USBStallHandler:	
  5392                           
  5393                           ;usb_device.c: 2232: if(UEP0bits.EPSTALL == 1)
  5394                           
  5395                           ;incstack = 0
  5396                           ; Regs used in _USBStallHandler: [wreg+fsr1l+fsr1h+status,2+status,0]
  5397  0985  003D               	movlb	29	; select bank29
  5398  0986  1C18               	btfss	24,0	;volatile
  5399  0987  29A4               	goto	i1l5218
  5400                           
  5401                           ;usb_device.c: 2233: {
  5402                           ;usb_device.c: 2235: if((pBDTEntryEP0OutCurrent->STAT.Val == 0x80) && (pBDTEntryIn[0]->S
      +                          TAT.Val == (0x80|0x04)))
  5403  0988  0023               	movlb	3	; select bank3
  5404  0989  0859               	movf	_pBDTEntryEP0OutCurrent^(0+384),w
  5405  098A  0086               	movwf	6
  5406  098B  0187               	clrf	7
  5407  098C  3080               	movlw	128
  5408  098D  0601               	xorwf	1,w
  5409  098E  1D03               	btfss	3,2
  5410  098F  29A2               	goto	i1l5216
  5411  0990  0835               	movf	_pBDTEntryIn^(0+384),w
  5412  0991  0086               	movwf	6
  5413  0992  0187               	clrf	7
  5414  0993  3084               	movlw	132
  5415  0994  0601               	xorwf	1,w
  5416  0995  1D03               	btfss	3,2
  5417  0996  29A2               	goto	i1l5216
  5418                           
  5419                           ;usb_device.c: 2236: {
  5420                           ;usb_device.c: 2238: pBDTEntryEP0OutCurrent->STAT.Val = 0x00|(0x08 & 0x08)|0x04;
  5421  0997  300C               	movlw	12
  5422  0998  00F0               	movwf	??_USBStallHandler
  5423  0999  0859               	movf	_pBDTEntryEP0OutCurrent^(0+384),w
  5424  099A  0086               	movwf	6
  5425  099B  0187               	clrf	7
  5426  099C  0870               	movf	??_USBStallHandler,w
  5427  099D  0081               	movwf	1
  5428                           
  5429                           ;usb_device.c: 2239: pBDTEntryEP0OutCurrent->STAT.Val |= 0x80;
  5430  099E  0859               	movf	_pBDTEntryEP0OutCurrent^(0+384),w
  5431  099F  0086               	movwf	6
  5432  09A0  0187               	clrf	7
  5433  09A1  1781               	bsf	1,7
  5434  09A2                     i1l5216:	
  5435                           
  5436                           ;usb_device.c: 2240: }
  5437                           ;usb_device.c: 2241: UEP0bits.EPSTALL = 0;
  5438  09A2  003D               	movlb	29	; select bank29
  5439  09A3  1018               	bcf	24,0	;volatile
  5440  09A4                     i1l5218:	
  5441                           
  5442                           ;usb_device.c: 2242: }
  5443                           ;usb_device.c: 2244: (UIR &= 0xDF);
  5444  09A4  30DF               	movlw	223
  5445  09A5  00F0               	movwf	??_USBStallHandler
  5446  09A6  0870               	movf	??_USBStallHandler,w
  5447  09A7  0590               	andwf	16,f	;volatile
  5448  09A8  0008               	return
  5449  09A9                     __end_of_USBStallHandler:	
  5450                           
  5451                           	psect	text18
  5452  08B7                     __ptext18:	
  5453 ;; *************** function _USBIncrement1msInternalTimers *****************
  5454 ;; Defined at:
  5455 ;;		line 3042 in file "/opt/microchip/mla/framework/usb/src/usb_device.c"
  5456 ;; Parameters:    Size  Location     Type
  5457 ;;		None
  5458 ;; Auto vars:     Size  Location     Type
  5459 ;;		None
  5460 ;; Return value:  Size  Location     Type
  5461 ;;		None               void
  5462 ;; Registers used:
  5463 ;;		wreg, status,2, status,0
  5464 ;; Tracked objects:
  5465 ;;		On entry : 0/0
  5466 ;;		On exit  : 0/0
  5467 ;;		Unchanged: 0/0
  5468 ;; Data sizes:     COMMON  BANK0h   BANK1   BANK2   BANK3   BANK4   BANK5   BANK6   BANK7   BANK8   BANK9  BANK10  BANK1
      +1  BANK12
  5469 ;;      Params:         0       0       0       0       0       0       0       0       0       0       0       0       
      +0       0
  5470 ;;      Locals:         0       0       0       0       0       0       0       0       0       0       0       0       
      +0       0
  5471 ;;      Temps:          1       0       0       0       0       0       0       0       0       0       0       0       
      +0       0
  5472 ;;      Totals:         1       0       0       0       0       0       0       0       0       0       0       0       
      +0       0
  5473 ;;Total ram usage:        1 bytes
  5474 ;; Hardware stack levels used:    1
  5475 ;; This function calls:
  5476 ;;		Nothing
  5477 ;; This function is called by:
  5478 ;;		_USBDeviceTasks
  5479 ;; This function uses a non-reentrant model
  5480 ;;
  5481                           
  5482                           
  5483                           ;psect for function _USBIncrement1msInternalTimers
  5484  08B7                     _USBIncrement1msInternalTimers:	
  5485                           
  5486                           ;usb_device.c: 3050: USB1msTickCount++;
  5487                           
  5488                           ;incstack = 0
  5489                           ; Regs used in _USBIncrement1msInternalTimers: [wreg+status,2+status,0]
  5490  08B7  3001               	movlw	1
  5491  08B8  0023               	movlb	3	; select bank3
  5492  08B9  07AB               	addwf	_USB1msTickCount^(0+384),f	;volatile
  5493  08BA  3000               	movlw	0
  5494  08BB  3DAC               	addwfc	(_USB1msTickCount+1)^(0+384),f	;volatile
  5495  08BC  3000               	movlw	0
  5496  08BD  3DAD               	addwfc	(_USB1msTickCount+2)^(0+384),f	;volatile
  5497  08BE  3000               	movlw	0
  5498  08BF  3DAE               	addwfc	(_USB1msTickCount+3)^(0+384),f	;volatile
  5499                           
  5500                           ;usb_device.c: 3051: if(USBBusIsSuspended == 0)
  5501  08C0  0848               	movf	_USBBusIsSuspended^(0+384),w	;volatile
  5502  08C1  1D03               	btfss	3,2
  5503  08C2  0008               	return
  5504                           
  5505                           ;usb_device.c: 3052: {
  5506                           ;usb_device.c: 3053: USBTicksSinceSuspendEnd++;
  5507  08C3  3001               	movlw	1
  5508  08C4  00F0               	movwf	??_USBIncrement1msInternalTimers
  5509  08C5  0870               	movf	??_USBIncrement1msInternalTimers,w
  5510  08C6  07D0               	addwf	_USBTicksSinceSuspendEnd^(0+384),f	;volatile
  5511                           
  5512                           ;usb_device.c: 3055: if(USBTicksSinceSuspendEnd == 0)
  5513  08C7  0850               	movf	_USBTicksSinceSuspendEnd^(0+384),w	;volatile
  5514  08C8  1D03               	btfss	3,2
  5515  08C9  0008               	return
  5516                           
  5517                           ;usb_device.c: 3056: {
  5518                           ;usb_device.c: 3057: USBTicksSinceSuspendEnd = 255;
  5519  08CA  30FF               	movlw	255
  5520  08CB  00F0               	movwf	??_USBIncrement1msInternalTimers
  5521  08CC  0870               	movf	??_USBIncrement1msInternalTimers,w
  5522  08CD  00D0               	movwf	_USBTicksSinceSuspendEnd^(0+384)	;volatile
  5523  08CE  0008               	return
  5524  08CF                     __end_of_USBIncrement1msInternalTimers:	
  5525                           
  5526                           	psect	text19
  5527  0D25                     __ptext19:	
  5528 ;; *************** function _USBCtrlEPService *****************
  5529 ;; Defined at:
  5530 ;;		line 2390 in file "/opt/microchip/mla/framework/usb/src/usb_device.c"
  5531 ;; Parameters:    Size  Location     Type
  5532 ;;		None
  5533 ;; Auto vars:     Size  Location     Type
  5534 ;;		None
  5535 ;; Return value:  Size  Location     Type
  5536 ;;		None               void
  5537 ;; Registers used:
  5538 ;;		wreg, fsr0l, fsr0h, fsr1l, fsr1h, status,2, status,0, pclath, cstack
  5539 ;; Tracked objects:
  5540 ;;		On entry : 0/0
  5541 ;;		On exit  : 0/0
  5542 ;;		Unchanged: 0/0
  5543 ;; Data sizes:     COMMON  BANK0h   BANK1   BANK2   BANK3   BANK4   BANK5   BANK6   BANK7   BANK8   BANK9  BANK10  BANK1
      +1  BANK12
  5544 ;;      Params:         0       0       0       0       0       0       0       0       0       0       0       0       
      +0       0
  5545 ;;      Locals:         0       0       0       0       0       0       0       0       0       0       0       0       
      +0       0
  5546 ;;      Temps:          0       0       3       0       0       0       0       0       0       0       0       0       
      +0       0
  5547 ;;      Totals:         0       0       3       0       0       0       0       0       0       0       0       0       
      +0       0
  5548 ;;Total ram usage:        3 bytes
  5549 ;; Hardware stack levels used:    1
  5550 ;; Hardware stack levels required when called:    8
  5551 ;; This function calls:
  5552 ;;		_USBCtrlTrfInHandler
  5553 ;;		_USBCtrlTrfOutHandler
  5554 ;;		_USBCtrlTrfSetupHandler
  5555 ;; This function is called by:
  5556 ;;		_USBDeviceTasks
  5557 ;; This function uses a non-reentrant model
  5558 ;;
  5559                           
  5560                           
  5561                           ;psect for function _USBCtrlEPService
  5562  0D25                     _USBCtrlEPService:	
  5563                           
  5564                           ;usb_device.c: 2396: USBStatusStageTimeoutCounter = (uint8_t)45;
  5565                           
  5566                           ;incstack = 0
  5567                           ; Regs used in _USBCtrlEPService: [wreg-fsr1h+status,2+status,0+pclath+cstack]
  5568  0D25  302D               	movlw	45
  5569  0D26  0021               	movlb	1	; select bank1
  5570  0D27  00E0               	movwf	??_USBCtrlEPService^(0+128)
  5571  0D28  0860               	movf	??_USBCtrlEPService^(0+128),w
  5572  0D29  0023               	movlb	3	; select bank3
  5573  0D2A  00CF               	movwf	_USBStatusStageTimeoutCounter^(0+384)	;volatile
  5574                           
  5575                           ;usb_device.c: 2400: if((USTATcopy.Val & ~0x02) == 0x00)
  5576  0D2B  086E               	movf	_USTATcopy^(0+384),w	;volatile
  5577  0D2C  39FD               	andlw	253
  5578  0D2D  1D03               	btfss	3,2
  5579  0D2E  2D6E               	goto	i1l5238
  5580                           
  5581                           ;usb_device.c: 2401: {
  5582                           ;usb_device.c: 2404: pBDTEntryEP0OutCurrent = (volatile BDT_ENTRY*)&BDT[(USTATcopy.Val &
      +                           0x7E)>>1];
  5583  0D2F  366E               	lsrf	_USTATcopy^(0+384),w	;volatile
  5584  0D30  393F               	andlw	63
  5585  0D31  0021               	movlb	1	; select bank1
  5586  0D32  00E0               	movwf	??_USBCtrlEPService^(0+128)
  5587  0D33  3001               	movlw	1
  5588  0D34                     u535_25:	
  5589  0D34  35E0               	lslf	??_USBCtrlEPService^(0+128),f
  5590  0D35  3EFF               	addlw	-1
  5591  0D36  1D03               	skipz
  5592  0D37  2D34               	goto	u535_25
  5593  0D38  3560               	lslf	??_USBCtrlEPService^(0+128),w
  5594  0D39  3E20               	addlw	32
  5595  0D3A  00E1               	movwf	(??_USBCtrlEPService+1)^(0+128)
  5596  0D3B  0861               	movf	(??_USBCtrlEPService+1)^(0+128),w
  5597  0D3C  0023               	movlb	3	; select bank3
  5598  0D3D  00D9               	movwf	_pBDTEntryEP0OutCurrent^(0+384)
  5599                           
  5600                           ;usb_device.c: 2412: pBDTEntryEP0OutNext = pBDTEntryEP0OutCurrent;
  5601  0D3E  0859               	movf	_pBDTEntryEP0OutCurrent^(0+384),w
  5602  0D3F  0021               	movlb	1	; select bank1
  5603  0D40  00E0               	movwf	??_USBCtrlEPService^(0+128)
  5604  0D41  0860               	movf	??_USBCtrlEPService^(0+128),w
  5605  0D42  00EC               	movwf	_pBDTEntryEP0OutNext^(0+128)
  5606                           
  5607                           ;usb_device.c: 2414: ((uint8_t_VAL*)&pBDTEntryEP0OutNext)->Val ^= 0x0004;
  5608  0D43  3004               	movlw	4
  5609  0D44  00E0               	movwf	??_USBCtrlEPService^(0+128)
  5610  0D45  0860               	movf	??_USBCtrlEPService^(0+128),w
  5611  0D46  06EC               	xorwf	_pBDTEntryEP0OutNext^(0+128),f
  5612                           
  5613                           ;usb_device.c: 2417: if(pBDTEntryEP0OutCurrent->STAT.PID == 0xD)
  5614  0D47  0023               	movlb	3	; select bank3
  5615  0D48  0859               	movf	_pBDTEntryEP0OutCurrent^(0+384),w
  5616  0D49  0086               	movwf	6
  5617  0D4A  0187               	clrf	7
  5618  0D4B  0C01               	rrf	1,w
  5619  0D4C  0C89               	rrf	9,f
  5620  0D4D  390F               	andlw	15
  5621  0D4E  3A0D               	xorlw	13
  5622  0D4F  1D03               	skipz
  5623  0D50  2D6B               	goto	i1l5236
  5624                           
  5625                           ;usb_device.c: 2418: {
  5626                           ;usb_device.c: 2423: __builtin_memcpy((uint8_t*)&SetupPkt,(uint8_t*)((void *)(pBDTEntryE
      +                          P0OutCurrent->ADR)),8);
  5627  0D51  3050               	movlw	80
  5628  0D52  0086               	movwf	6
  5629  0D53  0187               	clrf	7
  5630  0D54  0023               	movlb	3	; select bank3
  5631  0D55  0859               	movf	_pBDTEntryEP0OutCurrent^(0+384),w
  5632  0D56  3E02               	addlw	2
  5633  0D57  0084               	movwf	4
  5634  0D58  0185               	clrf	5
  5635  0D59  3F00               	moviw [0]fsr0
  5636  0D5A  0021               	movlb	1	; select bank1
  5637  0D5B  00E0               	movwf	??_USBCtrlEPService^(0+128)
  5638  0D5C  3F01               	moviw [1]fsr0
  5639  0D5D  00E1               	movwf	(??_USBCtrlEPService^(0+128)+1)
  5640  0D5E  0860               	movf	??_USBCtrlEPService^(0+128),w
  5641  0D5F  0084               	movwf	4
  5642  0D60  0861               	movf	(??_USBCtrlEPService+1)^(0+128),w
  5643  0D61  0085               	movwf	5
  5644  0D62  3008               	movlw	8
  5645  0D63  00E2               	movwf	(??_USBCtrlEPService+2)^(0+128)
  5646  0D64                     u537_2m0:	
  5647  0D64  0012               	moviw fsr0++
  5648  0D65  001E               	movwi fsr1++
  5649  0D66  0BE2               	decfsz	(??_USBCtrlEPService+2)^(0+128),f
  5650  0D67  2D64               	goto	u537_2m0
  5651                           
  5652                           ;usb_device.c: 2426: USBCtrlTrfSetupHandler();
  5653  0D68  318B  23E7         	fcall	_USBCtrlTrfSetupHandler
  5654                           
  5655                           ;usb_device.c: 2427: }
  5656  0D6A  0008               	return
  5657  0D6B                     i1l5236:	
  5658                           
  5659                           ;usb_device.c: 2428: else
  5660                           ;usb_device.c: 2429: {
  5661                           ;usb_device.c: 2431: USBCtrlTrfOutHandler();
  5662  0D6B  3189  21A9         	fcall	_USBCtrlTrfOutHandler
  5663                           
  5664                           ;usb_device.c: 2432: }
  5665                           ;usb_device.c: 2433: }
  5666  0D6D  0008               	return
  5667  0D6E                     i1l5238:	
  5668                           
  5669                           ;usb_device.c: 2434: else if((USTATcopy.Val & ~0x02) == 0x04)
  5670  0D6E  30FD               	movlw	253
  5671  0D6F  0023               	movlb	3	; select bank3
  5672  0D70  056E               	andwf	_USTATcopy^(0+384),w	;volatile
  5673  0D71  0021               	movlb	1	; select bank1
  5674  0D72  00E0               	movwf	??_USBCtrlEPService^(0+128)
  5675  0D73  3004               	movlw	4
  5676  0D74  0660               	xorwf	??_USBCtrlEPService^(0+128),w
  5677  0D75  1D03               	btfss	3,2
  5678  0D76  0008               	return
  5679                           
  5680                           ;usb_device.c: 2435: {
  5681                           ;usb_device.c: 2438: USBCtrlTrfInHandler();
  5682  0D77  3187  279C         	fcall	_USBCtrlTrfInHandler
  5683  0D79  0008               	return
  5684  0D7A                     __end_of_USBCtrlEPService:	
  5685                           
  5686                           	psect	text20
  5687  0BE7                     __ptext20:	
  5688 ;; *************** function _USBCtrlTrfSetupHandler *****************
  5689 ;; Defined at:
  5690 ;;		line 2483 in file "/opt/microchip/mla/framework/usb/src/usb_device.c"
  5691 ;; Parameters:    Size  Location     Type
  5692 ;;		None
  5693 ;; Auto vars:     Size  Location     Type
  5694 ;;		None
  5695 ;; Return value:  Size  Location     Type
  5696 ;;		None               void
  5697 ;; Registers used:
  5698 ;;		wreg, fsr0l, fsr0h, fsr1l, fsr1h, status,2, status,0, pclath, cstack
  5699 ;; Tracked objects:
  5700 ;;		On entry : 0/0
  5701 ;;		On exit  : 0/0
  5702 ;;		Unchanged: 0/0
  5703 ;; Data sizes:     COMMON  BANK0h   BANK1   BANK2   BANK3   BANK4   BANK5   BANK6   BANK7   BANK8   BANK9  BANK10  BANK1
      +1  BANK12
  5704 ;;      Params:         0       0       0       0       0       0       0       0       0       0       0       0       
      +0       0
  5705 ;;      Locals:         0       0       0       0       0       0       0       0       0       0       0       0       
      +0       0
  5706 ;;      Temps:          0       1       0       0       0       0       0       0       0       0       0       0       
      +0       0
  5707 ;;      Totals:         0       1       0       0       0       0       0       0       0       0       0       0       
      +0       0
  5708 ;;Total ram usage:        1 bytes
  5709 ;; Hardware stack levels used:    1
  5710 ;; Hardware stack levels required when called:    7
  5711 ;; This function calls:
  5712 ;;		_USBCheckStdRequest
  5713 ;;		_USBCtrlEPServiceComplete
  5714 ;;		_USER_USB_CALLBACK_EVENT_HANDLER
  5715 ;; This function is called by:
  5716 ;;		_USBCtrlEPService
  5717 ;; This function uses a non-reentrant model
  5718 ;;
  5719                           
  5720                           
  5721                           ;psect for function _USBCtrlTrfSetupHandler
  5722  0BE7                     _USBCtrlTrfSetupHandler:	
  5723                           
  5724                           ;usb_device.c: 2488: shortPacketStatus = 0;
  5725                           
  5726                           ;incstack = 0
  5727                           ; Regs used in _USBCtrlTrfSetupHandler: [wreg-fsr1h+status,2+status,0+pclath+cstack]
  5728  0BE7  0023               	movlb	3	; select bank3
  5729  0BE8  01DB               	clrf	_shortPacketStatus^(0+384)	;volatile
  5730                           
  5731                           ;usb_device.c: 2489: USBDeferStatusStagePacket = 0;
  5732  0BE9  01CB               	clrf	_USBDeferStatusStagePacket^(0+384)	;volatile
  5733                           
  5734                           ;usb_device.c: 2490: USBDeferINDataStagePackets = 0;
  5735  0BEA  01C9               	clrf	_USBDeferINDataStagePackets^(0+384)	;volatile
  5736                           
  5737                           ;usb_device.c: 2491: USBDeferOUTDataStagePackets = 0;
  5738  0BEB  01CA               	clrf	_USBDeferOUTDataStagePackets^(0+384)	;volatile
  5739                           
  5740                           ;usb_device.c: 2492: BothEP0OutUOWNsSet = 0;
  5741  0BEC  01C4               	clrf	_BothEP0OutUOWNsSet^(0+384)	;volatile
  5742                           
  5743                           ;usb_device.c: 2493: controlTransferState = 0;
  5744  0BED  01D6               	clrf	_controlTransferState^(0+384)	;volatile
  5745                           
  5746                           ;usb_device.c: 2502: pBDTEntryIn[0]->STAT.Val &= ~(0x80);
  5747  0BEE  307F               	movlw	127
  5748  0BEF  0020               	movlb	0	; select bank0
  5749  0BF0  00EF               	movwf	??_USBCtrlTrfSetupHandler
  5750  0BF1  0023               	movlb	3	; select bank3
  5751  0BF2  0835               	movf	_pBDTEntryIn^(0+384),w
  5752  0BF3  0086               	movwf	6
  5753  0BF4  0187               	clrf	7
  5754  0BF5  0020               	movlb	0	; select bank0
  5755  0BF6  086F               	movf	??_USBCtrlTrfSetupHandler,w
  5756  0BF7  0581               	andwf	1,f
  5757                           
  5758                           ;usb_device.c: 2503: ((uint8_t_VAL*)&pBDTEntryIn[0])->Val ^= 0x0004;
  5759  0BF8  3004               	movlw	4
  5760  0BF9  00EF               	movwf	??_USBCtrlTrfSetupHandler
  5761  0BFA  086F               	movf	??_USBCtrlTrfSetupHandler,w
  5762  0BFB  0023               	movlb	3	; select bank3
  5763  0BFC  06B5               	xorwf	_pBDTEntryIn^(0+384),f
  5764                           
  5765                           ;usb_device.c: 2504: pBDTEntryIn[0]->STAT.Val &= ~(0x80);
  5766  0BFD  307F               	movlw	127
  5767  0BFE  0020               	movlb	0	; select bank0
  5768  0BFF  00EF               	movwf	??_USBCtrlTrfSetupHandler
  5769  0C00  0023               	movlb	3	; select bank3
  5770  0C01  0835               	movf	_pBDTEntryIn^(0+384),w
  5771  0C02  0086               	movwf	6
  5772  0C03  0187               	clrf	7
  5773  0C04  0020               	movlb	0	; select bank0
  5774  0C05  086F               	movf	??_USBCtrlTrfSetupHandler,w
  5775  0C06  0581               	andwf	1,f
  5776                           
  5777                           ;usb_device.c: 2505: ((uint8_t_VAL*)&pBDTEntryIn[0])->Val ^= 0x0004;
  5778  0C07  3004               	movlw	4
  5779  0C08  00EF               	movwf	??_USBCtrlTrfSetupHandler
  5780  0C09  086F               	movf	??_USBCtrlTrfSetupHandler,w
  5781  0C0A  0023               	movlb	3	; select bank3
  5782  0C0B  06B5               	xorwf	_pBDTEntryIn^(0+384),f
  5783                           
  5784                           ;usb_device.c: 2506: pBDTEntryEP0OutNext->STAT.Val &= ~(0x80);
  5785  0C0C  307F               	movlw	127
  5786  0C0D  0020               	movlb	0	; select bank0
  5787  0C0E  00EF               	movwf	??_USBCtrlTrfSetupHandler
  5788  0C0F  0021               	movlb	1	; select bank1
  5789  0C10  086C               	movf	_pBDTEntryEP0OutNext^(0+128),w
  5790  0C11  0086               	movwf	6
  5791  0C12  0187               	clrf	7
  5792  0C13  0020               	movlb	0	; select bank0
  5793  0C14  086F               	movf	??_USBCtrlTrfSetupHandler,w
  5794  0C15  0581               	andwf	1,f
  5795                           
  5796                           ;usb_device.c: 2508: inPipes[0].info.Val = 0;
  5797  0C16  0021               	movlb	1	; select bank1
  5798  0C17  01E9               	clrf	(_inPipes^(0+128)+2)	;volatile
  5799                           
  5800                           ;usb_device.c: 2509: inPipes[0].wCount.Val = 0;
  5801  0C18  01EA               	clrf	(_inPipes^(0+128)+3)	;volatile
  5802  0C19  01EB               	clrf	((_inPipes+1)^(0+128)+3)	;volatile
  5803                           
  5804                           ;usb_device.c: 2510: outPipes[0].info.Val = 0;
  5805  0C1A  0023               	movlb	3	; select bank3
  5806  0C1B  01A2               	clrf	(_outPipes^(0+384)+2)	;volatile
  5807                           
  5808                           ;usb_device.c: 2511: outPipes[0].wCount.Val = 0;
  5809  0C1C  01A3               	clrf	(_outPipes^(0+384)+3)	;volatile
  5810  0C1D  01A4               	clrf	((_outPipes+1)^(0+384)+3)	;volatile
  5811                           
  5812                           ;usb_device.c: 2517: USBCheckStdRequest();
  5813  0C1E  318D  25DA  318B   	fcall	_USBCheckStdRequest
  5814                           
  5815                           ;usb_device.c: 2518: USER_USB_CALLBACK_EVENT_HANDLER(EVENT_EP0_REQUEST,0,0);
  5816  0C21  3000               	movlw	0
  5817  0C22  0020               	movlb	0	; select bank0
  5818  0C23  00E3               	movwf	USER_USB_CALLBACK_EVENT_HANDLER@event+1
  5819  0C24  3003               	movlw	3
  5820  0C25  00E2               	movwf	USER_USB_CALLBACK_EVENT_HANDLER@event
  5821  0C26  3000               	movlw	0
  5822  0C27  00E4               	movwf	USER_USB_CALLBACK_EVENT_HANDLER@pdata
  5823  0C28  3000               	movlw	0
  5824  0C29  00E5               	movwf	USER_USB_CALLBACK_EVENT_HANDLER@pdata+1
  5825  0C2A  3000               	movlw	0
  5826  0C2B  00E6               	movwf	USER_USB_CALLBACK_EVENT_HANDLER@size
  5827  0C2C  00E7               	movwf	USER_USB_CALLBACK_EVENT_HANDLER@size+1
  5828  0C2D  318A  2280  318B   	fcall	_USER_USB_CALLBACK_EVENT_HANDLER
  5829                           
  5830                           ;usb_device.c: 2531: USBCtrlEPServiceComplete();
  5831  0C30  3187  2717         	fcall	_USBCtrlEPServiceComplete
  5832  0C32  0008               	return
  5833  0C33                     __end_of_USBCtrlTrfSetupHandler:	
  5834                           
  5835                           	psect	text21
  5836  0717                     __ptext21:	
  5837 ;; *************** function _USBCtrlEPServiceComplete *****************
  5838 ;; Defined at:
  5839 ;;		line 1634 in file "/opt/microchip/mla/framework/usb/src/usb_device.c"
  5840 ;; Parameters:    Size  Location     Type
  5841 ;;		None
  5842 ;; Auto vars:     Size  Location     Type
  5843 ;;		None
  5844 ;; Return value:  Size  Location     Type
  5845 ;;		None               void
  5846 ;; Registers used:
  5847 ;;		wreg, fsr0l, fsr0h, fsr1l, fsr1h, status,2, status,0, pclath, cstack
  5848 ;; Tracked objects:
  5849 ;;		On entry : 0/0
  5850 ;;		On exit  : 0/0
  5851 ;;		Unchanged: 0/0
  5852 ;; Data sizes:     COMMON  BANK0h   BANK1   BANK2   BANK3   BANK4   BANK5   BANK6   BANK7   BANK8   BANK9  BANK10  BANK1
      +1  BANK12
  5853 ;;      Params:         0       0       0       0       0       0       0       0       0       0       0       0       
      +0       0
  5854 ;;      Locals:         0       0       0       0       0       0       0       0       0       0       0       0       
      +0       0
  5855 ;;      Temps:          2       0       0       0       0       0       0       0       0       0       0       0       
      +0       0
  5856 ;;      Totals:         2       0       0       0       0       0       0       0       0       0       0       0       
      +0       0
  5857 ;;Total ram usage:        2 bytes
  5858 ;; Hardware stack levels used:    1
  5859 ;; Hardware stack levels required when called:    2
  5860 ;; This function calls:
  5861 ;;		_USBCtrlEPAllowDataStage
  5862 ;;		_USBCtrlEPAllowStatusStage
  5863 ;; This function is called by:
  5864 ;;		_USBCtrlTrfSetupHandler
  5865 ;; This function uses a non-reentrant model
  5866 ;;
  5867                           
  5868                           
  5869                           ;psect for function _USBCtrlEPServiceComplete
  5870  0717                     _USBCtrlEPServiceComplete:	
  5871                           
  5872                           ;usb_device.c: 1640: UCONbits.PKTDIS = 0;
  5873                           
  5874                           ;incstack = 0
  5875                           ; Regs used in _USBCtrlEPServiceComplete: [wreg-fsr1h+status,2+status,0+pclath+cstack]
  5876  0717  003D               	movlb	29	; select bank29
  5877  0718  120E               	bcf	14,4	;volatile
  5878                           
  5879                           ;usb_device.c: 1646: if(inPipes[0].info.bits.busy == 0)
  5880  0719  0021               	movlb	1	; select bank1
  5881  071A  1BE9               	btfsc	(_inPipes^(0+128)+2),7	;volatile
  5882  071B  2F58               	goto	i1l341
  5883                           
  5884                           ;usb_device.c: 1647: {
  5885                           ;usb_device.c: 1648: if(outPipes[0].info.bits.busy == 1)
  5886  071C  0023               	movlb	3	; select bank3
  5887  071D  1FA2               	btfss	(_outPipes^(0+384)+2),7	;volatile
  5888  071E  2F2C               	goto	i1l4794
  5889                           
  5890                           ;usb_device.c: 1649: {
  5891                           ;usb_device.c: 1650: controlTransferState = 2;
  5892  071F  3002               	movlw	2
  5893  0720  00F5               	movwf	??_USBCtrlEPServiceComplete
  5894  0721  0875               	movf	??_USBCtrlEPServiceComplete,w
  5895  0722  00D6               	movwf	_controlTransferState^(0+384)	;volatile
  5896                           
  5897                           ;usb_device.c: 1661: if(USBDeferOUTDataStagePackets == 0)
  5898  0723  084A               	movf	_USBDeferOUTDataStagePackets^(0+384),w	;volatile
  5899  0724  1D03               	btfss	3,2
  5900  0725  2F28               	goto	i1l4790
  5901                           
  5902                           ;usb_device.c: 1662: {
  5903                           ;usb_device.c: 1663: USBCtrlEPAllowDataStage();
  5904  0726  318C  24D0         	fcall	_USBCtrlEPAllowDataStage
  5905  0728                     i1l4790:	
  5906                           
  5907                           ;usb_device.c: 1664: }
  5908                           ;usb_device.c: 1668: USBStatusStageEnabledFlag2 = 0;
  5909  0728  0023               	movlb	3	; select bank3
  5910  0729  01CE               	clrf	_USBStatusStageEnabledFlag2^(0+384)	;volatile
  5911                           
  5912                           ;usb_device.c: 1669: USBStatusStageEnabledFlag1 = 0;
  5913  072A  01CD               	clrf	_USBStatusStageEnabledFlag1^(0+384)	;volatile
  5914                           
  5915                           ;usb_device.c: 1670: }
  5916  072B  0008               	return
  5917  072C                     i1l4794:	
  5918                           
  5919                           ;usb_device.c: 1671: else
  5920                           ;usb_device.c: 1672: {
  5921                           ;usb_device.c: 1677: pBDTEntryEP0OutNext->CNT = 8;
  5922  072C  3008               	movlw	8
  5923  072D  00F5               	movwf	??_USBCtrlEPServiceComplete
  5924  072E  0021               	movlb	1	; select bank1
  5925  072F  0A6C               	incf	_pBDTEntryEP0OutNext^(0+128),w
  5926  0730  0086               	movwf	6
  5927  0731  0187               	clrf	7
  5928  0732  0875               	movf	??_USBCtrlEPServiceComplete,w
  5929  0733  0081               	movwf	1
  5930                           
  5931                           ;usb_device.c: 1678: pBDTEntryEP0OutNext->ADR = (((uint16_t)(&SetupPkt)) & 0x7FFF);
  5932  0734  3050               	movlw	80
  5933  0735  00F5               	movwf	??_USBCtrlEPServiceComplete
  5934  0736  3000               	movlw	0
  5935  0737  00F6               	movwf	??_USBCtrlEPServiceComplete+1
  5936  0738  086C               	movf	_pBDTEntryEP0OutNext^(0+128),w
  5937  0739  3E02               	addlw	2
  5938  073A  0086               	movwf	6
  5939  073B  0187               	clrf	7
  5940  073C  0875               	movf	??_USBCtrlEPServiceComplete,w
  5941  073D  3FC0               	movwi [0]fsr1
  5942  073E  0876               	movf	??_USBCtrlEPServiceComplete+1,w
  5943  073F  3FC1               	movwi [1]fsr1
  5944                           
  5945                           ;usb_device.c: 1679: pBDTEntryEP0OutNext->STAT.Val = 0x00|(0x08 & 0x08)|0x04;
  5946  0740  300C               	movlw	12
  5947  0741  00F5               	movwf	??_USBCtrlEPServiceComplete
  5948  0742  086C               	movf	_pBDTEntryEP0OutNext^(0+128),w
  5949  0743  0086               	movwf	6
  5950  0744  0187               	clrf	7
  5951  0745  0875               	movf	??_USBCtrlEPServiceComplete,w
  5952  0746  0081               	movwf	1
  5953                           
  5954                           ;usb_device.c: 1680: pBDTEntryEP0OutNext->STAT.Val |= 0x80;
  5955  0747  086C               	movf	_pBDTEntryEP0OutNext^(0+128),w
  5956  0748  0086               	movwf	6
  5957  0749  0187               	clrf	7
  5958  074A  1781               	bsf	1,7
  5959                           
  5960                           ;usb_device.c: 1681: pBDTEntryIn[0]->STAT.Val = 0x04;
  5961  074B  3004               	movlw	4
  5962  074C  00F5               	movwf	??_USBCtrlEPServiceComplete
  5963  074D  0023               	movlb	3	; select bank3
  5964  074E  0835               	movf	_pBDTEntryIn^(0+384),w
  5965  074F  0086               	movwf	6
  5966  0750  0187               	clrf	7
  5967  0751  0875               	movf	??_USBCtrlEPServiceComplete,w
  5968  0752  0081               	movwf	1
  5969                           
  5970                           ;usb_device.c: 1682: pBDTEntryIn[0]->STAT.Val |= 0x80;
  5971  0753  0835               	movf	_pBDTEntryIn^(0+384),w
  5972  0754  0086               	movwf	6
  5973  0755  0187               	clrf	7
  5974  0756  1781               	bsf	1,7
  5975                           
  5976                           ;usb_device.c: 1683: }
  5977                           ;usb_device.c: 1684: }
  5978  0757  0008               	return
  5979  0758                     i1l341:	
  5980                           
  5981                           ;usb_device.c: 1685: else
  5982                           ;usb_device.c: 1686: {
  5983                           ;usb_device.c: 1687: if(SetupPkt.DataDir == (0x80>>7))
  5984  0758  0020               	movlb	0	; select bank0
  5985  0759  1FD0               	btfss	80,7	;volatile
  5986  075A  2F6F               	goto	i1l4820
  5987                           
  5988                           ;usb_device.c: 1688: {
  5989                           ;usb_device.c: 1689: controlTransferState = 1;
  5990  075B  3001               	movlw	1
  5991  075C  00F5               	movwf	??_USBCtrlEPServiceComplete
  5992  075D  0875               	movf	??_USBCtrlEPServiceComplete,w
  5993  075E  0023               	movlb	3	; select bank3
  5994  075F  00D6               	movwf	_controlTransferState^(0+384)	;volatile
  5995                           
  5996                           ;usb_device.c: 1703: if(USBDeferINDataStagePackets == 0)
  5997  0760  0849               	movf	_USBDeferINDataStagePackets^(0+384),w	;volatile
  5998  0761  1D03               	btfss	3,2
  5999  0762  2F66               	goto	i1l4812
  6000                           
  6001                           ;usb_device.c: 1704: {
  6002                           ;usb_device.c: 1705: USBCtrlEPAllowDataStage();
  6003  0763  318C  24D0  3187   	fcall	_USBCtrlEPAllowDataStage
  6004  0766                     i1l4812:	
  6005                           
  6006                           ;usb_device.c: 1706: }
  6007                           ;usb_device.c: 1728: USBStatusStageEnabledFlag2 = 0;
  6008  0766  0023               	movlb	3	; select bank3
  6009  0767  01CE               	clrf	_USBStatusStageEnabledFlag2^(0+384)	;volatile
  6010                           
  6011                           ;usb_device.c: 1729: USBStatusStageEnabledFlag1 = 0;
  6012  0768  01CD               	clrf	_USBStatusStageEnabledFlag1^(0+384)	;volatile
  6013                           
  6014                           ;usb_device.c: 1730: if(USBDeferStatusStagePacket == 0)
  6015  0769  084B               	movf	_USBDeferStatusStagePacket^(0+384),w	;volatile
  6016  076A  1D03               	btfss	3,2
  6017  076B  0008               	return
  6018                           
  6019                           ;usb_device.c: 1731: {
  6020                           ;usb_device.c: 1732: USBCtrlEPAllowStatusStage();
  6021  076C  318E  263C         	fcall	_USBCtrlEPAllowStatusStage
  6022                           
  6023                           ;usb_device.c: 1733: }
  6024                           ;usb_device.c: 1734: }
  6025  076E  0008               	return
  6026  076F                     i1l4820:	
  6027                           
  6028                           ;usb_device.c: 1735: else
  6029                           ;usb_device.c: 1736: {
  6030                           ;usb_device.c: 1747: controlTransferState = 2;
  6031  076F  3002               	movlw	2
  6032  0770  00F5               	movwf	??_USBCtrlEPServiceComplete
  6033  0771  0875               	movf	??_USBCtrlEPServiceComplete,w
  6034  0772  0023               	movlb	3	; select bank3
  6035  0773  00D6               	movwf	_controlTransferState^(0+384)	;volatile
  6036                           
  6037                           ;usb_device.c: 1750: pBDTEntryEP0OutNext->CNT = 8;
  6038  0774  3008               	movlw	8
  6039  0775  00F5               	movwf	??_USBCtrlEPServiceComplete
  6040  0776  0021               	movlb	1	; select bank1
  6041  0777  0A6C               	incf	_pBDTEntryEP0OutNext^(0+128),w
  6042  0778  0086               	movwf	6
  6043  0779  0187               	clrf	7
  6044  077A  0875               	movf	??_USBCtrlEPServiceComplete,w
  6045  077B  0081               	movwf	1
  6046                           
  6047                           ;usb_device.c: 1751: pBDTEntryEP0OutNext->ADR = (((uint16_t)(&SetupPkt)) & 0x7FFF);
  6048  077C  3050               	movlw	80
  6049  077D  00F5               	movwf	??_USBCtrlEPServiceComplete
  6050  077E  3000               	movlw	0
  6051  077F  00F6               	movwf	??_USBCtrlEPServiceComplete+1
  6052  0780  086C               	movf	_pBDTEntryEP0OutNext^(0+128),w
  6053  0781  3E02               	addlw	2
  6054  0782  0086               	movwf	6
  6055  0783  0187               	clrf	7
  6056  0784  0875               	movf	??_USBCtrlEPServiceComplete,w
  6057  0785  3FC0               	movwi [0]fsr1
  6058  0786  0876               	movf	??_USBCtrlEPServiceComplete+1,w
  6059  0787  3FC1               	movwi [1]fsr1
  6060                           
  6061                           ;usb_device.c: 1752: pBDTEntryEP0OutNext->STAT.Val = 0x04;
  6062  0788  3004               	movlw	4
  6063  0789  00F5               	movwf	??_USBCtrlEPServiceComplete
  6064  078A  086C               	movf	_pBDTEntryEP0OutNext^(0+128),w
  6065  078B  0086               	movwf	6
  6066  078C  0187               	clrf	7
  6067  078D  0875               	movf	??_USBCtrlEPServiceComplete,w
  6068  078E  0081               	movwf	1
  6069                           
  6070                           ;usb_device.c: 1753: pBDTEntryEP0OutNext->STAT.Val |= 0x80;
  6071  078F  086C               	movf	_pBDTEntryEP0OutNext^(0+128),w
  6072  0790  0086               	movwf	6
  6073  0791  0187               	clrf	7
  6074  0792  1781               	bsf	1,7
  6075                           
  6076                           ;usb_device.c: 1756: USBStatusStageEnabledFlag2 = 0;
  6077  0793  0023               	movlb	3	; select bank3
  6078  0794  01CE               	clrf	_USBStatusStageEnabledFlag2^(0+384)	;volatile
  6079                           
  6080                           ;usb_device.c: 1757: USBStatusStageEnabledFlag1 = 0;
  6081  0795  01CD               	clrf	_USBStatusStageEnabledFlag1^(0+384)	;volatile
  6082                           
  6083                           ;usb_device.c: 1758: if(USBDeferStatusStagePacket == 0)
  6084  0796  084B               	movf	_USBDeferStatusStagePacket^(0+384),w	;volatile
  6085  0797  1D03               	btfss	3,2
  6086  0798  0008               	return
  6087                           
  6088                           ;usb_device.c: 1759: {
  6089                           ;usb_device.c: 1760: USBCtrlEPAllowStatusStage();
  6090  0799  318E  263C         	fcall	_USBCtrlEPAllowStatusStage
  6091  079B  0008               	return
  6092  079C                     __end_of_USBCtrlEPServiceComplete:	
  6093                           
  6094                           	psect	text22
  6095  0CD0                     __ptext22:	
  6096 ;; *************** function _USBCtrlEPAllowDataStage *****************
  6097 ;; Defined at:
  6098 ;;		line 1506 in file "/opt/microchip/mla/framework/usb/src/usb_device.c"
  6099 ;; Parameters:    Size  Location     Type
  6100 ;;		None
  6101 ;; Auto vars:     Size  Location     Type
  6102 ;;		None
  6103 ;; Return value:  Size  Location     Type
  6104 ;;		None               void
  6105 ;; Registers used:
  6106 ;;		wreg, fsr0l, fsr0h, fsr1l, fsr1h, status,2, status,0, pclath, cstack
  6107 ;; Tracked objects:
  6108 ;;		On entry : 0/0
  6109 ;;		On exit  : 0/0
  6110 ;;		Unchanged: 0/0
  6111 ;; Data sizes:     COMMON  BANK0h   BANK1   BANK2   BANK3   BANK4   BANK5   BANK6   BANK7   BANK8   BANK9  BANK10  BANK1
      +1  BANK12
  6112 ;;      Params:         0       0       0       0       0       0       0       0       0       0       0       0       
      +0       0
  6113 ;;      Locals:         0       0       0       0       0       0       0       0       0       0       0       0       
      +0       0
  6114 ;;      Temps:          2       0       0       0       0       0       0       0       0       0       0       0       
      +0       0
  6115 ;;      Totals:         2       0       0       0       0       0       0       0       0       0       0       0       
      +0       0
  6116 ;;Total ram usage:        2 bytes
  6117 ;; Hardware stack levels used:    1
  6118 ;; Hardware stack levels required when called:    1
  6119 ;; This function calls:
  6120 ;;		_USBCtrlTrfTxService
  6121 ;; This function is called by:
  6122 ;;		_USBCtrlEPServiceComplete
  6123 ;; This function uses a non-reentrant model
  6124 ;;
  6125                           
  6126                           
  6127                           ;psect for function _USBCtrlEPAllowDataStage
  6128  0CD0                     _USBCtrlEPAllowDataStage:	
  6129                           
  6130                           ;usb_device.c: 1508: USBDeferINDataStagePackets = 0;
  6131                           
  6132                           ;incstack = 0
  6133                           ; Regs used in _USBCtrlEPAllowDataStage: [wreg-fsr1h+status,2+status,0+pclath+cstack]
  6134  0CD0  0023               	movlb	3	; select bank3
  6135  0CD1  01C9               	clrf	_USBDeferINDataStagePackets^(0+384)	;volatile
  6136                           
  6137                           ;usb_device.c: 1509: USBDeferOUTDataStagePackets = 0;
  6138  0CD2  01CA               	clrf	_USBDeferOUTDataStagePackets^(0+384)	;volatile
  6139                           
  6140                           ;usb_device.c: 1511: if(controlTransferState == 2)
  6141  0CD3  3002               	movlw	2
  6142  0CD4  0656               	xorwf	_controlTransferState^(0+384),w	;volatile
  6143  0CD5  1D03               	btfss	3,2
  6144  0CD6  2CF7               	goto	i1l4576
  6145                           
  6146                           ;usb_device.c: 1512: {
  6147                           ;usb_device.c: 1514: pBDTEntryEP0OutNext->CNT = 8;
  6148  0CD7  3008               	movlw	8
  6149  0CD8  00F3               	movwf	??_USBCtrlEPAllowDataStage
  6150  0CD9  0021               	movlb	1	; select bank1
  6151  0CDA  0A6C               	incf	_pBDTEntryEP0OutNext^(0+128),w
  6152  0CDB  0086               	movwf	6
  6153  0CDC  0187               	clrf	7
  6154  0CDD  0873               	movf	??_USBCtrlEPAllowDataStage,w
  6155  0CDE  0081               	movwf	1
  6156                           
  6157                           ;usb_device.c: 1515: pBDTEntryEP0OutNext->ADR = (((uint16_t)(&CtrlTrfData)) & 0x7FFF);
  6158  0CDF  3058               	movlw	88
  6159  0CE0  00F3               	movwf	??_USBCtrlEPAllowDataStage
  6160  0CE1  3000               	movlw	0
  6161  0CE2  00F4               	movwf	??_USBCtrlEPAllowDataStage+1
  6162  0CE3  086C               	movf	_pBDTEntryEP0OutNext^(0+128),w
  6163  0CE4  3E02               	addlw	2
  6164  0CE5  0086               	movwf	6
  6165  0CE6  0187               	clrf	7
  6166  0CE7  0873               	movf	??_USBCtrlEPAllowDataStage,w
  6167  0CE8  3FC0               	movwi [0]fsr1
  6168  0CE9  0874               	movf	??_USBCtrlEPAllowDataStage+1,w
  6169  0CEA  3FC1               	movwi [1]fsr1
  6170                           
  6171                           ;usb_device.c: 1516: pBDTEntryEP0OutNext->STAT.Val = 0x40|(0x08 & 0x08);
  6172  0CEB  3048               	movlw	72
  6173  0CEC  00F3               	movwf	??_USBCtrlEPAllowDataStage
  6174  0CED  086C               	movf	_pBDTEntryEP0OutNext^(0+128),w
  6175  0CEE  0086               	movwf	6
  6176  0CEF  0187               	clrf	7
  6177  0CF0  0873               	movf	??_USBCtrlEPAllowDataStage,w
  6178  0CF1  0081               	movwf	1
  6179                           
  6180                           ;usb_device.c: 1517: pBDTEntryEP0OutNext->STAT.Val |= 0x80;
  6181  0CF2  086C               	movf	_pBDTEntryEP0OutNext^(0+128),w
  6182  0CF3  0086               	movwf	6
  6183  0CF4  0187               	clrf	7
  6184  0CF5  1781               	bsf	1,7
  6185                           
  6186                           ;usb_device.c: 1518: }
  6187  0CF6  0008               	return
  6188  0CF7                     i1l4576:	
  6189                           
  6190                           ;usb_device.c: 1519: else
  6191                           ;usb_device.c: 1520: {
  6192                           ;usb_device.c: 1523: if(SetupPkt.wLength < inPipes[0].wCount.Val)
  6193  0CF7  0021               	movlb	1	; select bank1
  6194  0CF8  086B               	movf	((_inPipes+1)^(0+128)+3),w	;volatile
  6195  0CF9  0020               	movlb	0	; select bank0
  6196  0CFA  0257               	subwf	87,w	;volatile
  6197  0CFB  1D03               	skipz
  6198  0CFC  2D01               	goto	u447_25
  6199  0CFD  0021               	movlb	1	; select bank1
  6200  0CFE  086A               	movf	(_inPipes^(0+128)+3),w	;volatile
  6201  0CFF  0020               	movlb	0	; select bank0
  6202  0D00  0256               	subwf	86,w	;volatile
  6203  0D01                     u447_25:	
  6204  0D01  1803               	skipnc
  6205  0D02  2D0A               	goto	i1l4580
  6206                           
  6207                           ;usb_device.c: 1524: {
  6208                           ;usb_device.c: 1525: inPipes[0].wCount.Val = SetupPkt.wLength;
  6209  0D03  0857               	movf	87,w	;volatile
  6210  0D04  0021               	movlb	1	; select bank1
  6211  0D05  00EB               	movwf	((_inPipes+1)^(0+128)+3)	;volatile
  6212  0D06  0020               	movlb	0	; select bank0
  6213  0D07  0856               	movf	86,w	;volatile
  6214  0D08  0021               	movlb	1	; select bank1
  6215  0D09  00EA               	movwf	(_inPipes^(0+128)+3)	;volatile
  6216  0D0A                     i1l4580:	
  6217                           
  6218                           ;usb_device.c: 1526: }
  6219                           ;usb_device.c: 1527: USBCtrlTrfTxService();
  6220  0D0A  318E  26A1         	fcall	_USBCtrlTrfTxService
  6221                           
  6222                           ;usb_device.c: 1532: pBDTEntryIn[0]->ADR = (((uint16_t)(&CtrlTrfData)) & 0x7FFF);
  6223  0D0C  3058               	movlw	88
  6224  0D0D  00F3               	movwf	??_USBCtrlEPAllowDataStage
  6225  0D0E  3000               	movlw	0
  6226  0D0F  00F4               	movwf	??_USBCtrlEPAllowDataStage+1
  6227  0D10  0023               	movlb	3	; select bank3
  6228  0D11  0835               	movf	_pBDTEntryIn^(0+384),w
  6229  0D12  3E02               	addlw	2
  6230  0D13  0086               	movwf	6
  6231  0D14  0187               	clrf	7
  6232  0D15  0873               	movf	??_USBCtrlEPAllowDataStage,w
  6233  0D16  3FC0               	movwi [0]fsr1
  6234  0D17  0874               	movf	??_USBCtrlEPAllowDataStage+1,w
  6235  0D18  3FC1               	movwi [1]fsr1
  6236                           
  6237                           ;usb_device.c: 1533: pBDTEntryIn[0]->STAT.Val = 0x40|(0x08 & 0x08);
  6238  0D19  3048               	movlw	72
  6239  0D1A  00F3               	movwf	??_USBCtrlEPAllowDataStage
  6240  0D1B  0835               	movf	_pBDTEntryIn^(0+384),w
  6241  0D1C  0086               	movwf	6
  6242  0D1D  0187               	clrf	7
  6243  0D1E  0873               	movf	??_USBCtrlEPAllowDataStage,w
  6244  0D1F  0081               	movwf	1
  6245                           
  6246                           ;usb_device.c: 1534: pBDTEntryIn[0]->STAT.Val |= 0x80;
  6247  0D20  0835               	movf	_pBDTEntryIn^(0+384),w
  6248  0D21  0086               	movwf	6
  6249  0D22  0187               	clrf	7
  6250  0D23  1781               	bsf	1,7
  6251  0D24  0008               	return
  6252  0D25                     __end_of_USBCtrlEPAllowDataStage:	
  6253                           
  6254                           	psect	text23
  6255  0DDA                     __ptext23:	
  6256 ;; *************** function _USBCheckStdRequest *****************
  6257 ;; Defined at:
  6258 ;;		line 2703 in file "/opt/microchip/mla/framework/usb/src/usb_device.c"
  6259 ;; Parameters:    Size  Location     Type
  6260 ;;		None
  6261 ;; Auto vars:     Size  Location     Type
  6262 ;;		None
  6263 ;; Return value:  Size  Location     Type
  6264 ;;		None               void
  6265 ;; Registers used:
  6266 ;;		wreg, fsr0l, fsr0h, fsr1l, fsr1h, status,2, status,0, pclath, cstack
  6267 ;; Tracked objects:
  6268 ;;		On entry : 0/0
  6269 ;;		On exit  : 0/0
  6270 ;;		Unchanged: 0/0
  6271 ;; Data sizes:     COMMON  BANK0h   BANK1   BANK2   BANK3   BANK4   BANK5   BANK6   BANK7   BANK8   BANK9  BANK10  BANK1
      +1  BANK12
  6272 ;;      Params:         0       0       0       0       0       0       0       0       0       0       0       0       
      +0       0
  6273 ;;      Locals:         0       0       0       0       0       0       0       0       0       0       0       0       
      +0       0
  6274 ;;      Temps:          0       1       0       0       0       0       0       0       0       0       0       0       
      +0       0
  6275 ;;      Totals:         0       1       0       0       0       0       0       0       0       0       0       0       
      +0       0
  6276 ;;Total ram usage:        1 bytes
  6277 ;; Hardware stack levels used:    1
  6278 ;; Hardware stack levels required when called:    6
  6279 ;; This function calls:
  6280 ;;		_USBStdFeatureReqHandler
  6281 ;;		_USBStdGetDscHandler
  6282 ;;		_USBStdGetStatusHandler
  6283 ;;		_USBStdSetCfgHandler
  6284 ;;		_USER_USB_CALLBACK_EVENT_HANDLER
  6285 ;; This function is called by:
  6286 ;;		_USBCtrlTrfSetupHandler
  6287 ;; This function uses a non-reentrant model
  6288 ;;
  6289                           
  6290                           
  6291                           ;psect for function _USBCheckStdRequest
  6292  0DDA                     _USBCheckStdRequest:	
  6293                           
  6294                           ;usb_device.c: 2705: if(SetupPkt.RequestType != (0x00>>5)) return;
  6295                           
  6296                           ;incstack = 0
  6297                           ; Regs used in _USBCheckStdRequest: [wreg-fsr1h+status,2+status,0+pclath+cstack]
  6298  0DDA  0020               	movlb	0	; select bank0
  6299  0DDB  0E50               	swapf	80,w	;volatile
  6300  0DDC  0C89               	rrf	9,f
  6301  0DDD  3903               	andlw	3
  6302  0DDE  3A00               	xorlw	0
  6303  0DDF  1D03               	btfss	3,2
  6304  0DE0  0008               	return
  6305  0DE1  2E30               	goto	i1l4914
  6306  0DE2                     i1l468:	
  6307                           ;usb_device.c: 2708: {
  6308                           ;usb_device.c: 2709: case 5:
  6309                           
  6310                           ;usb_device.c: 2707: switch(SetupPkt.bRequest)
  6311                           
  6312                           
  6313                           ;usb_device.c: 2710: inPipes[0].info.bits.busy = 1;
  6314  0DE2  0021               	movlb	1	; select bank1
  6315  0DE3  17E9               	bsf	(_inPipes^(0+128)+2),7	;volatile
  6316                           
  6317                           ;usb_device.c: 2711: USBDeviceState = ADR_PENDING_STATE;
  6318  0DE4  3008               	movlw	8
  6319  0DE5  0020               	movlb	0	; select bank0
  6320  0DE6  00EE               	movwf	??_USBCheckStdRequest
  6321  0DE7  086E               	movf	??_USBCheckStdRequest,w
  6322  0DE8  0023               	movlb	3	; select bank3
  6323  0DE9  00CC               	movwf	_USBDeviceState^(0+384)	;volatile
  6324                           
  6325                           ;usb_device.c: 2713: break;
  6326  0DEA  0008               	return
  6327  0DEB                     i1l4884:	
  6328                           ;usb_device.c: 2714: case 6:
  6329                           
  6330                           
  6331                           ;usb_device.c: 2715: USBStdGetDscHandler();
  6332  0DEB  318F  2781         	fcall	_USBStdGetDscHandler
  6333                           
  6334                           ;usb_device.c: 2716: break;
  6335  0DED  0008               	return
  6336  0DEE                     i1l4886:	
  6337                           ;usb_device.c: 2717: case 9:
  6338                           
  6339                           
  6340                           ;usb_device.c: 2718: USBStdSetCfgHandler();
  6341  0DEE  3186  2688         	fcall	_USBStdSetCfgHandler
  6342                           
  6343                           ;usb_device.c: 2719: break;
  6344  0DF0  0008               	return
  6345  0DF1                     i1l4888:	
  6346                           ;usb_device.c: 2720: case 8:
  6347                           
  6348                           
  6349                           ;usb_device.c: 2721: inPipes[0].pSrc.bRam = (uint8_t*)&USBActiveConfiguration;
  6350  0DF1  30ED               	movlw	low _USBActiveConfiguration
  6351  0DF2  0021               	movlb	1	; select bank1
  6352  0DF3  00E7               	movwf	_inPipes^(0+128)	;volatile
  6353  0DF4  3001               	movlw	high _USBActiveConfiguration
  6354  0DF5  00E8               	movwf	(_inPipes+1)^(0+128)	;volatile
  6355                           
  6356                           ;usb_device.c: 2722: inPipes[0].info.bits.ctrl_trf_mem = 0x01;
  6357  0DF6  1469               	bsf	(_inPipes^(0+128)+2),0	;volatile
  6358                           
  6359                           ;usb_device.c: 2723: inPipes[0].wCount.v[0] = 1;
  6360  0DF7  3001               	movlw	1
  6361  0DF8  0020               	movlb	0	; select bank0
  6362  0DF9  00EE               	movwf	??_USBCheckStdRequest
  6363  0DFA  086E               	movf	??_USBCheckStdRequest,w
  6364  0DFB  0021               	movlb	1	; select bank1
  6365  0DFC  00EA               	movwf	(_inPipes^(0+128)+3)	;volatile
  6366                           
  6367                           ;usb_device.c: 2724: inPipes[0].info.bits.busy = 1;
  6368  0DFD  17E9               	bsf	(_inPipes^(0+128)+2),7	;volatile
  6369                           
  6370                           ;usb_device.c: 2725: break;
  6371  0DFE  0008               	return
  6372  0DFF                     i1l4896:	
  6373                           ;usb_device.c: 2726: case 0:
  6374                           
  6375                           
  6376                           ;usb_device.c: 2727: USBStdGetStatusHandler();
  6377  0DFF  318B  2304         	fcall	_USBStdGetStatusHandler
  6378                           
  6379                           ;usb_device.c: 2728: break;
  6380  0E01  0008               	return
  6381  0E02                     i1l4898:	
  6382                           ;usb_device.c: 2729: case 1:
  6383                           
  6384                           
  6385                           ;usb_device.c: 2730: case 3:
  6386                           ;usb_device.c: 2731: USBStdFeatureReqHandler();
  6387  0E02  3180  204A         	fcall	_USBStdFeatureReqHandler
  6388                           
  6389                           ;usb_device.c: 2732: break;
  6390  0E04  0008               	return
  6391  0E05                     i1l4900:	
  6392                           ;usb_device.c: 2733: case 10:
  6393                           
  6394                           
  6395                           ;usb_device.c: 2734: inPipes[0].pSrc.bRam = (uint8_t*)&USBAlternateInterface[SetupPkt.bI
      +                          ntfID];
  6396  0E05  0020               	movlb	0	; select bank0
  6397  0E06  0854               	movf	84,w	;volatile
  6398  0E07  3EEB               	addlw	(low (_USBAlternateInterface| (0+256)))& (0+255)
  6399  0E08  0021               	movlb	1	; select bank1
  6400  0E09  00E7               	movwf	_inPipes^(0+128)	;volatile
  6401  0E0A  3001               	movlw	1
  6402  0E0B  00E8               	movwf	(_inPipes+1)^(0+128)	;volatile
  6403                           
  6404                           ;usb_device.c: 2735: inPipes[0].info.bits.ctrl_trf_mem = 0x01;
  6405  0E0C  1469               	bsf	(_inPipes^(0+128)+2),0	;volatile
  6406                           
  6407                           ;usb_device.c: 2736: inPipes[0].wCount.v[0] = 1;
  6408  0E0D  3001               	movlw	1
  6409  0E0E  0020               	movlb	0	; select bank0
  6410  0E0F  00EE               	movwf	??_USBCheckStdRequest
  6411  0E10  086E               	movf	??_USBCheckStdRequest,w
  6412  0E11  0021               	movlb	1	; select bank1
  6413  0E12  00EA               	movwf	(_inPipes^(0+128)+3)	;volatile
  6414                           
  6415                           ;usb_device.c: 2737: inPipes[0].info.bits.busy = 1;
  6416  0E13  17E9               	bsf	(_inPipes^(0+128)+2),7	;volatile
  6417                           
  6418                           ;usb_device.c: 2738: break;
  6419  0E14  0008               	return
  6420  0E15                     i1l477:	
  6421                           ;usb_device.c: 2739: case 11:
  6422                           
  6423                           
  6424                           ;usb_device.c: 2740: inPipes[0].info.bits.busy = 1;
  6425  0E15  0021               	movlb	1	; select bank1
  6426  0E16  17E9               	bsf	(_inPipes^(0+128)+2),7	;volatile
  6427                           
  6428                           ;usb_device.c: 2741: USBAlternateInterface[SetupPkt.bIntfID] = SetupPkt.bAltID;
  6429  0E17  0020               	movlb	0	; select bank0
  6430  0E18  0852               	movf	82,w	;volatile
  6431  0E19  00EE               	movwf	??_USBCheckStdRequest
  6432  0E1A  0854               	movf	84,w	;volatile
  6433  0E1B  3EEB               	addlw	(low (_USBAlternateInterface| (0+256)))& (0+255)
  6434  0E1C  0086               	movwf	6
  6435  0E1D  3001               	movlw	1	; select bank3/4
  6436  0E1E  0087               	movwf	7
  6437  0E1F  086E               	movf	??_USBCheckStdRequest,w
  6438  0E20  0081               	movwf	1
  6439                           
  6440                           ;usb_device.c: 2742: break;
  6441  0E21  0008               	return
  6442  0E22                     i1l4910:	
  6443                           ;usb_device.c: 2743: case 7:
  6444                           
  6445                           
  6446                           ;usb_device.c: 2744: USER_USB_CALLBACK_EVENT_HANDLER(EVENT_SET_DESCRIPTOR,0,0);
  6447  0E22  3000               	movlw	0
  6448  0E23  00E3               	movwf	USER_USB_CALLBACK_EVENT_HANDLER@event+1
  6449  0E24  3002               	movlw	2
  6450  0E25  00E2               	movwf	USER_USB_CALLBACK_EVENT_HANDLER@event
  6451  0E26  3000               	movlw	0
  6452  0E27  00E4               	movwf	USER_USB_CALLBACK_EVENT_HANDLER@pdata
  6453  0E28  3000               	movlw	0
  6454  0E29  00E5               	movwf	USER_USB_CALLBACK_EVENT_HANDLER@pdata+1
  6455  0E2A  3000               	movlw	0
  6456  0E2B  00E6               	movwf	USER_USB_CALLBACK_EVENT_HANDLER@size
  6457  0E2C  00E7               	movwf	USER_USB_CALLBACK_EVENT_HANDLER@size+1
  6458  0E2D  318A  2280         	fcall	_USER_USB_CALLBACK_EVENT_HANDLER
  6459                           
  6460                           ;usb_device.c: 2749: }
  6461                           
  6462                           ;usb_device.c: 2748: break;
  6463                           
  6464                           ;usb_device.c: 2747: default:
  6465                           
  6466                           ;usb_device.c: 2746: case 12:
  6467                           
  6468                           ;usb_device.c: 2745: break;
  6469  0E2F  0008               	return
  6470  0E30                     i1l4914:	
  6471  0E30  0020               	movlb	0	; select bank0
  6472  0E31  0851               	movf	81,w	;volatile
  6473                           
  6474                           ; Switch size 1, requested type "space"
  6475                           ; Number of cases is 11, Range of values is 0 to 12
  6476                           ; switch strategies available:
  6477                           ; Name         Instructions Cycles
  6478                           ; direct_byte           32     6 (fixed)
  6479                           ; simple_byte           34    18 (average)
  6480                           ; jumptable            260     6 (fixed)
  6481                           ;	Chosen strategy is direct_byte
  6482  0E32  0084               	movwf	4
  6483  0E33  300D               	movlw	13
  6484  0E34  0204               	subwf	4,w
  6485  0E35  1803               	skipnc
  6486  0E36  0008               	return
  6487  0E37  3188               	movlp	high i1S5760
  6488  0E38  3504               	lslf	4,w
  6489  0E39  3E00               	addlw	low i1S5760
  6490  0E3A  0082               	movwf	2
  6491  0E3B                     i1l466:	
  6492  0E3B  0008               	return
  6493  0E3C                     __end_of_USBCheckStdRequest:	
  6494                           
  6495                           	psect	swtext1
  6496  0800                     __pswtext1:	
  6497  0800                     i1S5760:	
  6498  0800  318D  2DFF         	ljmp	i1l4896
  6499  0802  318E  2E02         	ljmp	i1l4898
  6500  0804  318E  2E3B         	ljmp	i1l466
  6501  0806  318E  2E02         	ljmp	i1l4898
  6502  0808  318E  2E3B         	ljmp	i1l466
  6503  080A  318D  2DE2         	ljmp	i1l468
  6504  080C  318D  2DEB         	ljmp	i1l4884
  6505  080E  318E  2E22         	ljmp	i1l4910
  6506  0810  318D  2DF1         	ljmp	i1l4888
  6507  0812  318D  2DEE         	ljmp	i1l4886
  6508  0814  318E  2E05         	ljmp	i1l4900
  6509  0816  318E  2E15         	ljmp	i1l477
  6510  0818  318E  2E3B         	ljmp	i1l466
  6511                           
  6512                           	psect	text24
  6513  0688                     __ptext24:	
  6514 ;; *************** function _USBStdSetCfgHandler *****************
  6515 ;; Defined at:
  6516 ;;		line 1986 in file "/opt/microchip/mla/framework/usb/src/usb_device.c"
  6517 ;; Parameters:    Size  Location     Type
  6518 ;;		None
  6519 ;; Auto vars:     Size  Location     Type
  6520 ;;  p               2    9[BANK0h] PTR unsigned char 
  6521 ;;		 -> UEP1(1), 
  6522 ;;  i               1   11[BANK0h] unsigned char 
  6523 ;;  i               1   12[BANK0h] unsigned char 
  6524 ;; Return value:  Size  Location     Type
  6525 ;;		None               void
  6526 ;; Registers used:
  6527 ;;		wreg, fsr0l, fsr0h, fsr1l, fsr1h, status,2, status,0, pclath, cstack
  6528 ;; Tracked objects:
  6529 ;;		On entry : 0/0
  6530 ;;		On exit  : 0/0
  6531 ;;		Unchanged: 0/0
  6532 ;; Data sizes:     COMMON  BANK0h   BANK1   BANK2   BANK3   BANK4   BANK5   BANK6   BANK7   BANK8   BANK9  BANK10  BANK1
      +1  BANK12
  6533 ;;      Params:         0       0       0       0       0       0       0       0       0       0       0       0       
      +0       0
  6534 ;;      Locals:         0       4       0       0       0       0       0       0       0       0       0       0       
      +0       0
  6535 ;;      Temps:          0       1       0       0       0       0       0       0       0       0       0       0       
      +0       0
  6536 ;;      Totals:         0       5       0       0       0       0       0       0       0       0       0       0       
      +0       0
  6537 ;;Total ram usage:        5 bytes
  6538 ;; Hardware stack levels used:    1
  6539 ;; Hardware stack levels required when called:    5
  6540 ;; This function calls:
  6541 ;;		_USER_USB_CALLBACK_EVENT_HANDLER
  6542 ;;		_memset
  6543 ;; This function is called by:
  6544 ;;		_USBCheckStdRequest
  6545 ;; This function uses a non-reentrant model
  6546 ;;
  6547                           
  6548                           
  6549                           ;psect for function _USBStdSetCfgHandler
  6550  0688                     _USBStdSetCfgHandler:	
  6551                           
  6552                           ;usb_device.c: 1988: uint8_t i;
  6553                           ;usb_device.c: 1991: inPipes[0].info.bits.busy = 1;
  6554                           
  6555                           ;incstack = 0
  6556                           ; Regs used in _USBStdSetCfgHandler: [wreg-fsr1h+status,2+status,0+pclath+cstack]
  6557  0688  0021               	movlb	1	; select bank1
  6558  0689  17E9               	bsf	(_inPipes^(0+128)+2),7	;volatile
  6559                           
  6560                           ;usb_device.c: 1994: { uint8_t i; uint8_t* p = (uint8_t*)&UEP1; for(i=0;i<2;i++) *p++ = 
      +                          0; };
  6561  068A  300E               	movlw	14
  6562  068B  0020               	movlb	0	; select bank0
  6563  068C  00EA               	movwf	USBStdSetCfgHandler@p+1
  6564  068D  3099               	movlw	153
  6565  068E  00E9               	movwf	USBStdSetCfgHandler@p
  6566  068F  01EB               	clrf	USBStdSetCfgHandler@i_1478
  6567  0690  3002               	movlw	2
  6568  0691  026B               	subwf	USBStdSetCfgHandler@i_1478,w
  6569  0692  1803               	btfsc	3,0
  6570  0693  2EA5               	goto	i1l4604
  6571  0694                     i1l4596:	
  6572  0694  0869               	movf	USBStdSetCfgHandler@p,w
  6573  0695  0086               	movwf	6
  6574  0696  086A               	movf	USBStdSetCfgHandler@p+1,w
  6575  0697  0087               	movwf	7
  6576  0698  0181               	clrf	1
  6577  0699  3001               	movlw	1
  6578  069A  07E9               	addwf	USBStdSetCfgHandler@p,f
  6579  069B  3000               	movlw	0
  6580  069C  3DEA               	addwfc	USBStdSetCfgHandler@p+1,f
  6581  069D  3001               	movlw	1
  6582  069E  00E8               	movwf	??_USBStdSetCfgHandler
  6583  069F  0868               	movf	??_USBStdSetCfgHandler,w
  6584  06A0  07EB               	addwf	USBStdSetCfgHandler@i_1478,f
  6585  06A1  3002               	movlw	2
  6586  06A2  026B               	subwf	USBStdSetCfgHandler@i_1478,w
  6587  06A3  1C03               	skipc
  6588  06A4  2E94               	goto	i1l4596
  6589  06A5                     i1l4604:	
  6590                           
  6591                           ;usb_device.c: 1997: memset((void*)&BDT[0], 0x00, sizeof(BDT));
  6592  06A5  3020               	movlw	32
  6593  06A6  00F0               	movwf	memset@p1
  6594  06A7  3000               	movlw	0
  6595  06A8  00F1               	movwf	memset@p1+1
  6596  06A9  3000               	movlw	0
  6597  06AA  00F2               	movwf	memset@c
  6598  06AB  00F3               	movwf	memset@c+1
  6599  06AC  3030               	movlw	48
  6600  06AD  00F4               	movwf	memset@n
  6601  06AE  3000               	movlw	0
  6602  06AF  00F5               	movwf	memset@n+1
  6603  06B0  3188  209F  3186   	fcall	_memset
  6604                           
  6605                           ;usb_device.c: 2000: UCONbits.PPBRST = 1;
  6606  06B3  003D               	movlb	29	; select bank29
  6607  06B4  170E               	bsf	14,6	;volatile
  6608                           
  6609                           ;usb_device.c: 2005: for(i = 0; i < (uint8_t)(2+1u); i++)
  6610  06B5  0020               	movlb	0	; select bank0
  6611  06B6  01EC               	clrf	USBStdSetCfgHandler@i
  6612  06B7  3003               	movlw	3
  6613  06B8  026C               	subwf	USBStdSetCfgHandler@i,w
  6614  06B9  1803               	btfsc	3,0
  6615  06BA  2ECF               	goto	i1l4620
  6616  06BB                     i1l4614:	
  6617                           
  6618                           ;usb_device.c: 2006: {
  6619                           ;usb_device.c: 2007: ep_data_in[i].Val = 0u;
  6620  06BB  086C               	movf	USBStdSetCfgHandler@i,w
  6621  06BC  3EAF               	addlw	(low (_ep_data_in| (0+256)))& (0+255)
  6622  06BD  0086               	movwf	6
  6623  06BE  3001               	movlw	1	; select bank3/4
  6624  06BF  0087               	movwf	7
  6625  06C0  0181               	clrf	1
  6626                           
  6627                           ;usb_device.c: 2008: ep_data_out[i].Val = 0u;
  6628  06C1  086C               	movf	USBStdSetCfgHandler@i,w
  6629  06C2  3EB2               	addlw	(low (_ep_data_out| (0+256)))& (0+255)
  6630  06C3  0086               	movwf	6
  6631  06C4  3001               	movlw	1	; select bank3/4
  6632  06C5  0087               	movwf	7
  6633  06C6  0181               	clrf	1
  6634  06C7  3001               	movlw	1
  6635  06C8  00E8               	movwf	??_USBStdSetCfgHandler
  6636  06C9  0868               	movf	??_USBStdSetCfgHandler,w
  6637  06CA  07EC               	addwf	USBStdSetCfgHandler@i,f
  6638  06CB  3003               	movlw	3
  6639  06CC  026C               	subwf	USBStdSetCfgHandler@i,w
  6640  06CD  1C03               	skipc
  6641  06CE  2EBB               	goto	i1l4614
  6642  06CF                     i1l4620:	
  6643                           
  6644                           ;usb_device.c: 2009: }
  6645                           ;usb_device.c: 2012: memset((void*)&USBAlternateInterface,0x00,2);
  6646  06CF  30EB               	movlw	low _USBAlternateInterface
  6647  06D0  00F0               	movwf	memset@p1
  6648  06D1  3001               	movlw	high _USBAlternateInterface
  6649  06D2  00F1               	movwf	memset@p1+1
  6650  06D3  3000               	movlw	0
  6651  06D4  00F2               	movwf	memset@c
  6652  06D5  00F3               	movwf	memset@c+1
  6653  06D6  3002               	movlw	2
  6654  06D7  00F4               	movwf	memset@n
  6655  06D8  3000               	movlw	0
  6656  06D9  00F5               	movwf	memset@n+1
  6657  06DA  3188  209F  3186   	fcall	_memset
  6658                           
  6659                           ;usb_device.c: 2015: UCONbits.PPBRST = 0;
  6660  06DD  003D               	movlb	29	; select bank29
  6661  06DE  130E               	bcf	14,6	;volatile
  6662                           
  6663                           ;usb_device.c: 2017: pBDTEntryIn[0] = (volatile BDT_ENTRY*)&BDT[2];
  6664  06DF  3028               	movlw	40
  6665  06E0  0020               	movlb	0	; select bank0
  6666  06E1  00E8               	movwf	??_USBStdSetCfgHandler
  6667  06E2  0868               	movf	??_USBStdSetCfgHandler,w
  6668  06E3  0023               	movlb	3	; select bank3
  6669  06E4  00B5               	movwf	_pBDTEntryIn^(0+384)
  6670                           
  6671                           ;usb_device.c: 2020: pBDTEntryEP0OutCurrent = (volatile BDT_ENTRY*)&BDT[0];
  6672  06E5  3020               	movlw	32
  6673  06E6  0020               	movlb	0	; select bank0
  6674  06E7  00E8               	movwf	??_USBStdSetCfgHandler
  6675  06E8  0868               	movf	??_USBStdSetCfgHandler,w
  6676  06E9  0023               	movlb	3	; select bank3
  6677  06EA  00D9               	movwf	_pBDTEntryEP0OutCurrent^(0+384)
  6678                           
  6679                           ;usb_device.c: 2021: pBDTEntryEP0OutNext = pBDTEntryEP0OutCurrent;
  6680  06EB  0859               	movf	_pBDTEntryEP0OutCurrent^(0+384),w
  6681  06EC  0020               	movlb	0	; select bank0
  6682  06ED  00E8               	movwf	??_USBStdSetCfgHandler
  6683  06EE  0868               	movf	??_USBStdSetCfgHandler,w
  6684  06EF  0021               	movlb	1	; select bank1
  6685  06F0  00EC               	movwf	_pBDTEntryEP0OutNext^(0+128)
  6686                           
  6687                           ;usb_device.c: 2024: USBActiveConfiguration = SetupPkt.bConfigurationValue;
  6688  06F1  0020               	movlb	0	; select bank0
  6689  06F2  0852               	movf	82,w	;volatile
  6690  06F3  00E8               	movwf	??_USBStdSetCfgHandler
  6691  06F4  0868               	movf	??_USBStdSetCfgHandler,w
  6692  06F5  0023               	movlb	3	; select bank3
  6693  06F6  00ED               	movwf	_USBActiveConfiguration^(0+384)	;volatile
  6694                           
  6695                           ;usb_device.c: 2027: if(USBActiveConfiguration == 0)
  6696  06F7  086D               	movf	_USBActiveConfiguration^(0+384),w	;volatile
  6697  06F8  1D03               	btfss	3,2
  6698  06F9  2F01               	goto	i1l4636
  6699                           
  6700                           ;usb_device.c: 2028: {
  6701                           ;usb_device.c: 2030: USBDeviceState = ADDRESS_STATE;
  6702  06FA  3010               	movlw	16
  6703  06FB  0020               	movlb	0	; select bank0
  6704  06FC  00E8               	movwf	??_USBStdSetCfgHandler
  6705  06FD  0868               	movf	??_USBStdSetCfgHandler,w
  6706  06FE  0023               	movlb	3	; select bank3
  6707  06FF  00CC               	movwf	_USBDeviceState^(0+384)	;volatile
  6708                           
  6709                           ;usb_device.c: 2031: }
  6710  0700  0008               	return
  6711  0701                     i1l4636:	
  6712                           
  6713                           ;usb_device.c: 2032: else
  6714                           ;usb_device.c: 2033: {
  6715                           ;usb_device.c: 2035: USER_USB_CALLBACK_EVENT_HANDLER(EVENT_CONFIGURED,(void*)&USBActiveC
      +                          onfiguration,1);
  6716  0701  3000               	movlw	0
  6717  0702  0020               	movlb	0	; select bank0
  6718  0703  00E3               	movwf	USER_USB_CALLBACK_EVENT_HANDLER@event+1
  6719  0704  3001               	movlw	1
  6720  0705  00E2               	movwf	USER_USB_CALLBACK_EVENT_HANDLER@event
  6721  0706  30ED               	movlw	low _USBActiveConfiguration
  6722  0707  00E4               	movwf	USER_USB_CALLBACK_EVENT_HANDLER@pdata
  6723  0708  3001               	movlw	high _USBActiveConfiguration
  6724  0709  00E5               	movwf	USER_USB_CALLBACK_EVENT_HANDLER@pdata+1
  6725  070A  3001               	movlw	1
  6726  070B  00E6               	movwf	USER_USB_CALLBACK_EVENT_HANDLER@size
  6727  070C  3000               	movlw	0
  6728  070D  00E7               	movwf	USER_USB_CALLBACK_EVENT_HANDLER@size+1
  6729  070E  318A  2280         	fcall	_USER_USB_CALLBACK_EVENT_HANDLER
  6730                           
  6731                           ;usb_device.c: 2040: USBDeviceState = CONFIGURED_STATE;
  6732  0710  3020               	movlw	32
  6733  0711  0020               	movlb	0	; select bank0
  6734  0712  00E8               	movwf	??_USBStdSetCfgHandler
  6735  0713  0868               	movf	??_USBStdSetCfgHandler,w
  6736  0714  0023               	movlb	3	; select bank3
  6737  0715  00CC               	movwf	_USBDeviceState^(0+384)	;volatile
  6738  0716  0008               	return
  6739  0717                     __end_of_USBStdSetCfgHandler:	
  6740                           
  6741                           	psect	text25
  6742  089F                     __ptext25:	
  6743 ;; *************** function _memset *****************
  6744 ;; Defined at:
  6745 ;;		line 8 in file "/opt/microchip/xc8/v1.35/sources/common/memset.c"
  6746 ;; Parameters:    Size  Location     Type
  6747 ;;  p1              2    0[COMMON] PTR void 
  6748 ;;		 -> USBAlternateInterface(2), BDT(48), 
  6749 ;;  c               2    2[COMMON] int 
  6750 ;;  n               2    4[COMMON] unsigned int 
  6751 ;; Auto vars:     Size  Location     Type
  6752 ;;  p               2    6[COMMON] PTR unsigned char 
  6753 ;;		 -> USBAlternateInterface(2), BDT(48), 
  6754 ;; Return value:  Size  Location     Type
  6755 ;;                  2    0[COMMON] PTR void 
  6756 ;; Registers used:
  6757 ;;		wreg, fsr1l, fsr1h, status,2, status,0
  6758 ;; Tracked objects:
  6759 ;;		On entry : 0/0
  6760 ;;		On exit  : 0/0
  6761 ;;		Unchanged: 0/0
  6762 ;; Data sizes:     COMMON  BANK0h   BANK1   BANK2   BANK3   BANK4   BANK5   BANK6   BANK7   BANK8   BANK9  BANK10  BANK1
      +1  BANK12
  6763 ;;      Params:         6       0       0       0       0       0       0       0       0       0       0       0       
      +0       0
  6764 ;;      Locals:         2       0       0       0       0       0       0       0       0       0       0       0       
      +0       0
  6765 ;;      Temps:          0       0       0       0       0       0       0       0       0       0       0       0       
      +0       0
  6766 ;;      Totals:         8       0       0       0       0       0       0       0       0       0       0       0       
      +0       0
  6767 ;;Total ram usage:        8 bytes
  6768 ;; Hardware stack levels used:    1
  6769 ;; This function calls:
  6770 ;;		Nothing
  6771 ;; This function is called by:
  6772 ;;		_USBStdSetCfgHandler
  6773 ;; This function uses a non-reentrant model
  6774 ;;
  6775                           
  6776                           
  6777                           ;psect for function _memset
  6778  089F                     _memset:	
  6779                           
  6780                           ;incstack = 0
  6781                           ; Regs used in _memset: [wreg+fsr1l+fsr1h+status,2+status,0]
  6782  089F  0871               	movf	memset@p1+1,w
  6783  08A0  00F7               	movwf	memset@p+1
  6784  08A1  0870               	movf	memset@p1,w
  6785  08A2  00F6               	movwf	memset@p
  6786  08A3                     i1l4526:	
  6787  08A3  3001               	movlw	1
  6788  08A4  02F4               	subwf	memset@n,f
  6789  08A5  3000               	movlw	0
  6790  08A6  3BF5               	subwfb	memset@n+1,f
  6791  08A7  0A74               	incf	memset@n,w
  6792  08A8  1903               	btfsc	3,2
  6793  08A9  0A75               	incf	memset@n+1,w
  6794  08AA  1903               	btfsc	3,2
  6795  08AB  0008               	return
  6796  08AC  0876               	movf	memset@p,w
  6797  08AD  0086               	movwf	6
  6798  08AE  0877               	movf	memset@p+1,w
  6799  08AF  0087               	movwf	7
  6800  08B0  0872               	movf	memset@c,w
  6801  08B1  0081               	movwf	1
  6802  08B2  3001               	movlw	1
  6803  08B3  07F6               	addwf	memset@p,f
  6804  08B4  3000               	movlw	0
  6805  08B5  3DF7               	addwfc	memset@p+1,f
  6806  08B6  28A3               	goto	i1l4526
  6807  08B7                     __end_of_memset:	
  6808                           ;	Return value of _memset is never used
  6809                           
  6810                           
  6811                           	psect	text26
  6812  0B04                     __ptext26:	
  6813 ;; *************** function _USBStdGetStatusHandler *****************
  6814 ;; Defined at:
  6815 ;;		line 2147 in file "/opt/microchip/mla/framework/usb/src/usb_device.c"
  6816 ;; Parameters:    Size  Location     Type
  6817 ;;		None
  6818 ;; Auto vars:     Size  Location     Type
  6819 ;;  p               1    1[COMMON] PTR struct __BDT
  6820 ;;		 -> BDT(48), NULL(0), 
  6821 ;; Return value:  Size  Location     Type
  6822 ;;		None               void
  6823 ;; Registers used:
  6824 ;;		wreg, fsr0l, fsr0h, fsr1l, fsr1h, status,2, status,0
  6825 ;; Tracked objects:
  6826 ;;		On entry : 0/0
  6827 ;;		On exit  : 0/0
  6828 ;;		Unchanged: 0/0
  6829 ;; Data sizes:     COMMON  BANK0h   BANK1   BANK2   BANK3   BANK4   BANK5   BANK6   BANK7   BANK8   BANK9  BANK10  BANK1
      +1  BANK12
  6830 ;;      Params:         0       0       0       0       0       0       0       0       0       0       0       0       
      +0       0
  6831 ;;      Locals:         1       0       0       0       0       0       0       0       0       0       0       0       
      +0       0
  6832 ;;      Temps:          1       0       0       0       0       0       0       0       0       0       0       0       
      +0       0
  6833 ;;      Totals:         2       0       0       0       0       0       0       0       0       0       0       0       
      +0       0
  6834 ;;Total ram usage:        2 bytes
  6835 ;; Hardware stack levels used:    1
  6836 ;; This function calls:
  6837 ;;		Nothing
  6838 ;; This function is called by:
  6839 ;;		_USBCheckStdRequest
  6840 ;; This function uses a non-reentrant model
  6841 ;;
  6842                           
  6843                           
  6844                           ;psect for function _USBStdGetStatusHandler
  6845  0B04                     _USBStdGetStatusHandler:	
  6846                           
  6847                           ;usb_device.c: 2149: CtrlTrfData[0] = 0;
  6848                           
  6849                           ;incstack = 0
  6850                           ; Regs used in _USBStdGetStatusHandler: [wreg-fsr1h+status,2+status,0]
  6851  0B04  0020               	movlb	0	; select bank0
  6852  0B05  01D8               	clrf	88	;volatile
  6853                           
  6854                           ;usb_device.c: 2150: CtrlTrfData[1] = 0;
  6855  0B06  01D9               	clrf	89	;volatile
  6856                           
  6857                           ;usb_device.c: 2152: switch(SetupPkt.Recipient)
  6858  0B07  2B36               	goto	i1l4692
  6859  0B08                     i1l406:	
  6860                           ;usb_device.c: 2153: {
  6861                           ;usb_device.c: 2154: case (0x00):
  6862                           
  6863                           
  6864                           ;usb_device.c: 2155: inPipes[0].info.bits.busy = 1;
  6865  0B08  0021               	movlb	1	; select bank1
  6866  0B09  17E9               	bsf	(_inPipes^(0+128)+2),7	;volatile
  6867                           
  6868                           ;usb_device.c: 2163: }
  6869                           ;usb_device.c: 2165: if(RemoteWakeup == 1)
  6870                           
  6871                           ;usb_device.c: 2161: {
  6872                           ;usb_device.c: 2162: CtrlTrfData[0]|=0x01;
  6873                           
  6874                           ;usb_device.c: 2160: if(0 == 1)
  6875  0B0A  0023               	movlb	3	; select bank3
  6876  0B0B  0347               	decf	_RemoteWakeup^(0+384),w	;volatile
  6877  0B0C  1D03               	btfss	3,2
  6878  0B0D  2B42               	goto	i1l409
  6879                           
  6880                           ;usb_device.c: 2166: {
  6881                           ;usb_device.c: 2167: CtrlTrfData[0]|=0x02;
  6882  0B0E  0020               	movlb	0	; select bank0
  6883  0B0F  14D8               	bsf	88,1	;volatile
  6884                           
  6885                           ;usb_device.c: 2168: }
  6886                           ;usb_device.c: 2169: break;
  6887  0B10  2B42               	goto	i1l409
  6888  0B11                     i1l410:	
  6889                           ;usb_device.c: 2170: case (0x01):
  6890                           
  6891                           
  6892                           ;usb_device.c: 2171: inPipes[0].info.bits.busy = 1;
  6893  0B11  0021               	movlb	1	; select bank1
  6894  0B12  17E9               	bsf	(_inPipes^(0+128)+2),7	;volatile
  6895                           
  6896                           ;usb_device.c: 2172: break;
  6897  0B13  2B42               	goto	i1l409
  6898  0B14                     i1l411:	
  6899                           ;usb_device.c: 2173: case (0x02):
  6900                           
  6901                           
  6902                           ;usb_device.c: 2174: inPipes[0].info.bits.busy = 1;
  6903  0B14  0021               	movlb	1	; select bank1
  6904  0B15  17E9               	bsf	(_inPipes^(0+128)+2),7	;volatile
  6905                           
  6906                           ;usb_device.c: 2178: {
  6907                           ;usb_device.c: 2179: BDT_ENTRY *p;
  6908                           ;usb_device.c: 2181: if(SetupPkt.EPDir == 0)
  6909  0B16  0020               	movlb	0	; select bank0
  6910  0B17  1BD4               	btfsc	84,7	;volatile
  6911  0B18  2B1D               	goto	i1l4682
  6912                           
  6913                           ;usb_device.c: 2182: {
  6914                           ;usb_device.c: 2183: p = (BDT_ENTRY*)pBDTEntryOut[SetupPkt.EPNum];
  6915  0B19  0854               	movf	84,w	;volatile
  6916  0B1A  390F               	andlw	15
  6917  0B1B  3EB8               	addlw	(low (_pBDTEntryOut| (0+256)))& (0+255)
  6918  0B1C  2B20               	goto	L6
  6919  0B1D                     i1l4682:	
  6920                           ;usb_device.c: 2184: }
  6921                           
  6922                           
  6923                           ;usb_device.c: 2185: else
  6924                           ;usb_device.c: 2186: {
  6925                           ;usb_device.c: 2187: p = (BDT_ENTRY*)pBDTEntryIn[SetupPkt.EPNum];
  6926  0B1D  0854               	movf	84,w	;volatile
  6927  0B1E  390F               	andlw	15
  6928  0B1F  3EB5               	addlw	(low (_pBDTEntryIn| (0+256)))& (0+255)
  6929  0B20                     L6:	
  6930  0B20  0086               	movwf	6
  6931  0B21  3001               	movlw	1	; select bank3/4
  6932  0B22  0087               	movwf	7
  6933  0B23  0801               	movf	1,w
  6934  0B24  00F0               	movwf	??_USBStdGetStatusHandler
  6935  0B25  0870               	movf	??_USBStdGetStatusHandler,w
  6936  0B26  00F1               	movwf	USBStdGetStatusHandler@p
  6937                           
  6938                           ;usb_device.c: 2188: }
  6939                           ;usb_device.c: 2190: if((p->STAT.UOWN == 1) && (p->STAT.BSTALL == 1))
  6940  0B27  0871               	movf	USBStdGetStatusHandler@p,w
  6941  0B28  0086               	movwf	6
  6942  0B29  0187               	clrf	7
  6943  0B2A  1F81               	btfss	1,7
  6944  0B2B  2B42               	goto	i1l409
  6945  0B2C  0871               	movf	USBStdGetStatusHandler@p,w
  6946  0B2D  0086               	movwf	6
  6947  0B2E  0187               	clrf	7
  6948  0B2F  1D01               	btfss	1,2
  6949  0B30  2B42               	goto	i1l409
  6950                           
  6951                           ;usb_device.c: 2191: CtrlTrfData[0]=0x01;
  6952  0B31  3001               	movlw	1
  6953  0B32  00F0               	movwf	??_USBStdGetStatusHandler
  6954  0B33  0870               	movf	??_USBStdGetStatusHandler,w
  6955  0B34  00D8               	movwf	88	;volatile
  6956                           
  6957                           ;usb_device.c: 2193: }
  6958                           ;usb_device.c: 2194: }
  6959                           
  6960                           ;usb_device.c: 2192: break;
  6961  0B35  2B42               	goto	i1l409
  6962  0B36                     i1l4692:	
  6963  0B36  0850               	movf	80,w	;volatile
  6964  0B37  391F               	andlw	31
  6965                           
  6966                           ; Switch size 1, requested type "space"
  6967                           ; Number of cases is 3, Range of values is 0 to 2
  6968                           ; switch strategies available:
  6969                           ; Name         Instructions Cycles
  6970                           ; simple_byte           10     6 (average)
  6971                           ; direct_byte           12     6 (fixed)
  6972                           ; jumptable            260     6 (fixed)
  6973                           ;	Chosen strategy is simple_byte
  6974  0B38  3A00               	xorlw	0	; case 0
  6975  0B39  1903               	skipnz
  6976  0B3A  2B08               	goto	i1l406
  6977  0B3B  3A01               	xorlw	1	; case 1
  6978  0B3C  1903               	skipnz
  6979  0B3D  2B11               	goto	i1l410
  6980  0B3E  3A03               	xorlw	3	; case 2
  6981  0B3F  1903               	skipnz
  6982  0B40  2B14               	goto	i1l411
  6983  0B41  2B42               	goto	i1l409
  6984  0B42                     i1l409:	
  6985                           
  6986                           ;usb_device.c: 2196: if(inPipes[0].info.bits.busy == 1)
  6987  0B42  0021               	movlb	1	; select bank1
  6988  0B43  1FE9               	btfss	(_inPipes^(0+128)+2),7	;volatile
  6989  0B44  0008               	return
  6990                           
  6991                           ;usb_device.c: 2197: {
  6992                           ;usb_device.c: 2198: inPipes[0].pSrc.bRam = (uint8_t*)&CtrlTrfData;
  6993  0B45  3058               	movlw	88
  6994  0B46  00E7               	movwf	_inPipes^(0+128)	;volatile
  6995  0B47  3000               	movlw	0
  6996  0B48  00E8               	movwf	(_inPipes+1)^(0+128)	;volatile
  6997                           
  6998                           ;usb_device.c: 2199: inPipes[0].info.bits.ctrl_trf_mem = 0x01;
  6999  0B49  1469               	bsf	(_inPipes^(0+128)+2),0	;volatile
  7000                           
  7001                           ;usb_device.c: 2200: inPipes[0].wCount.v[0] = 2;
  7002  0B4A  3002               	movlw	2
  7003  0B4B  00F0               	movwf	??_USBStdGetStatusHandler
  7004  0B4C  0870               	movf	??_USBStdGetStatusHandler,w
  7005  0B4D  00EA               	movwf	(_inPipes^(0+128)+3)	;volatile
  7006  0B4E  0008               	return
  7007  0B4F                     __end_of_USBStdGetStatusHandler:	
  7008                           
  7009                           	psect	text27
  7010  0F81                     __ptext27:	
  7011 ;; *************** function _USBStdGetDscHandler *****************
  7012 ;; Defined at:
  7013 ;;		line 2061 in file "/opt/microchip/mla/framework/usb/src/usb_device.c"
  7014 ;; Parameters:    Size  Location     Type
  7015 ;;		None
  7016 ;; Auto vars:     Size  Location     Type
  7017 ;;		None
  7018 ;; Return value:  Size  Location     Type
  7019 ;;		None               void
  7020 ;; Registers used:
  7021 ;;		wreg, fsr0l, fsr0h, status,2, status,0, pclath
  7022 ;; Tracked objects:
  7023 ;;		On entry : 0/0
  7024 ;;		On exit  : 0/0
  7025 ;;		Unchanged: 0/0
  7026 ;; Data sizes:     COMMON  BANK0h   BANK1   BANK2   BANK3   BANK4   BANK5   BANK6   BANK7   BANK8   BANK9  BANK10  BANK1
      +1  BANK12
  7027 ;;      Params:         0       0       0       0       0       0       0       0       0       0       0       0       
      +0       0
  7028 ;;      Locals:         0       0       0       0       0       0       0       0       0       0       0       0       
      +0       0
  7029 ;;      Temps:          3       0       0       0       0       0       0       0       0       0       0       0       
      +0       0
  7030 ;;      Totals:         3       0       0       0       0       0       0       0       0       0       0       0       
      +0       0
  7031 ;;Total ram usage:        3 bytes
  7032 ;; Hardware stack levels used:    1
  7033 ;; This function calls:
  7034 ;;		Nothing
  7035 ;; This function is called by:
  7036 ;;		_USBCheckStdRequest
  7037 ;; This function uses a non-reentrant model
  7038 ;;
  7039                           
  7040                           
  7041                           ;psect for function _USBStdGetDscHandler
  7042  0F81                     _USBStdGetDscHandler:	
  7043                           
  7044                           ;usb_device.c: 2063: if(SetupPkt.bmRequestType == 0x80)
  7045                           
  7046                           ;incstack = 0
  7047                           ; Regs used in _USBStdGetDscHandler: [wreg-fsr0h+status,2+status,0+pclath]
  7048  0F81  3080               	movlw	128
  7049  0F82  0020               	movlb	0	; select bank0
  7050  0F83  0650               	xorwf	80,w	;volatile
  7051  0F84  1D03               	btfss	3,2
  7052  0F85  0008               	return
  7053                           
  7054                           ;usb_device.c: 2064: {
  7055                           ;usb_device.c: 2065: inPipes[0].info.Val = 0x00 | 0x80 | 0x40;
  7056  0F86  30C0               	movlw	192
  7057  0F87  00F0               	movwf	??_USBStdGetDscHandler
  7058  0F88  0870               	movf	??_USBStdGetDscHandler,w
  7059  0F89  0021               	movlb	1	; select bank1
  7060  0F8A  00E9               	movwf	(_inPipes^(0+128)+2)	;volatile
  7061                           
  7062                           ;usb_device.c: 2067: switch(SetupPkt.bDescriptorType)
  7063  0F8B  2FF3               	goto	i1l4670
  7064  0F8C                     i1l4644:	
  7065                           ;usb_device.c: 2068: {
  7066                           ;usb_device.c: 2069: case 0x01:
  7067                           
  7068                           
  7069                           ;usb_device.c: 2073: inPipes[0].pSrc.bRom = (const uint8_t*)&device_dsc;
  7070  0F8C  30DB               	movlw	low (_device_dsc| (0+32768))
  7071  0F8D  0021               	movlb	1	; select bank1
  7072  0F8E  00E7               	movwf	_inPipes^(0+128)	;volatile
  7073  0F8F  3085               	movlw	high (_device_dsc| (0+32768))
  7074  0F90  00E8               	movwf	(_inPipes^(0+128)+1)	;volatile
  7075                           
  7076                           ;usb_device.c: 2075: inPipes[0].wCount.Val = sizeof(device_dsc);
  7077  0F91  3000               	movlw	0
  7078  0F92  00EB               	movwf	((_inPipes+1)^(0+128)+3)	;volatile
  7079  0F93  3012               	movlw	18
  7080  0F94  00EA               	movwf	(_inPipes^(0+128)+3)	;volatile
  7081                           
  7082                           ;usb_device.c: 2076: break;
  7083  0F95  0008               	return
  7084  0F96                     i1l4648:	
  7085                           ;usb_device.c: 2077: case 0x02:
  7086                           
  7087                           
  7088                           ;usb_device.c: 2081: if(SetupPkt.bDscIndex < 1)
  7089  0F96  0020               	movlb	0	; select bank0
  7090  0F97  0852               	movf	82,w	;volatile
  7091  0F98  1D03               	btfss	3,2
  7092  0F99  2FC9               	goto	i1l4656
  7093                           
  7094                           ;usb_device.c: 2082: {
  7095                           ;usb_device.c: 2086: inPipes[0].pSrc.bRom = *(USB_CD_Ptr+SetupPkt.bDscIndex);
  7096  0F9A  0852               	movf	82,w	;volatile
  7097  0F9B  00F0               	movwf	??_USBStdGetDscHandler
  7098  0F9C  01F1               	clrf	??_USBStdGetDscHandler+1
  7099  0F9D  35F0               	lslf	??_USBStdGetDscHandler,f
  7100  0F9E  0DF1               	rlf	??_USBStdGetDscHandler+1,f
  7101  0F9F  3052               	movlw	low (_USB_CD_Ptr| (0+32768))
  7102  0FA0  0770               	addwf	??_USBStdGetDscHandler,w
  7103  0FA1  0084               	movwf	4
  7104  0FA2  3085               	movlw	high (_USB_CD_Ptr| (0+32768))
  7105  0FA3  3D71               	addwfc	??_USBStdGetDscHandler+1,w
  7106  0FA4  0085               	movwf	5
  7107  0FA5  3F00               	moviw [0]fsr0
  7108  0FA6  0021               	movlb	1	; select bank1
  7109  0FA7  00E7               	movwf	_inPipes^(0+128)	;volatile
  7110  0FA8  3F01               	moviw [1]fsr0
  7111  0FA9  00E8               	movwf	(_inPipes+1)^(0+128)	;volatile
  7112                           
  7113                           ;usb_device.c: 2092: inPipes[0].wCount.byte.LB = *(inPipes[0].pSrc.bRom+2);
  7114  0FAA  0868               	movf	(_inPipes+1)^(0+128),w	;volatile
  7115  0FAB  00F1               	movwf	??_USBStdGetDscHandler+1
  7116  0FAC  0867               	movf	_inPipes^(0+128),w	;volatile
  7117  0FAD  00F0               	movwf	??_USBStdGetDscHandler
  7118  0FAE  3002               	movlw	2
  7119  0FAF  0770               	addwf	??_USBStdGetDscHandler,w
  7120  0FB0  0084               	movwf	4
  7121  0FB1  0871               	movf	??_USBStdGetDscHandler+1,w
  7122  0FB2  1803               	skipnc
  7123  0FB3  0A71               	incf	??_USBStdGetDscHandler+1,w
  7124  0FB4  0085               	movwf	5
  7125  0FB5  0800               	movf	0,w	;code access
  7126  0FB6  00F2               	movwf	??_USBStdGetDscHandler+2
  7127  0FB7  0872               	movf	??_USBStdGetDscHandler+2,w
  7128  0FB8  00EA               	movwf	(_inPipes^(0+128)+3)	;volatile
  7129                           
  7130                           ;usb_device.c: 2093: inPipes[0].wCount.byte.HB = *(inPipes[0].pSrc.bRom+3);
  7131  0FB9  0868               	movf	(_inPipes+1)^(0+128),w	;volatile
  7132  0FBA  00F1               	movwf	??_USBStdGetDscHandler+1
  7133  0FBB  0867               	movf	_inPipes^(0+128),w	;volatile
  7134  0FBC  00F0               	movwf	??_USBStdGetDscHandler
  7135  0FBD  3003               	movlw	3
  7136  0FBE  0770               	addwf	??_USBStdGetDscHandler,w
  7137  0FBF  0084               	movwf	4
  7138  0FC0  0871               	movf	??_USBStdGetDscHandler+1,w
  7139  0FC1  1803               	skipnc
  7140  0FC2  0A71               	incf	??_USBStdGetDscHandler+1,w
  7141  0FC3  0085               	movwf	5
  7142  0FC4  0800               	movf	0,w	;code access
  7143  0FC5  00F2               	movwf	??_USBStdGetDscHandler+2
  7144  0FC6  0872               	movf	??_USBStdGetDscHandler+2,w
  7145  0FC7  00EB               	movwf	(_inPipes^(0+128)+4)	;volatile
  7146                           
  7147                           ;usb_device.c: 2094: }
  7148  0FC8  0008               	return
  7149  0FC9                     i1l4656:	
  7150                           
  7151                           ;usb_device.c: 2095: else
  7152                           ;usb_device.c: 2096: {
  7153                           ;usb_device.c: 2097: inPipes[0].info.Val = 0;
  7154  0FC9  0021               	movlb	1	; select bank1
  7155  0FCA  01E9               	clrf	(_inPipes^(0+128)+2)	;volatile
  7156                           
  7157                           ;usb_device.c: 2098: }
  7158                           ;usb_device.c: 2099: break;
  7159  0FCB  0008               	return
  7160  0FCC                     i1l4658:	
  7161                           ;usb_device.c: 2100: case 0x03:
  7162                           
  7163                           
  7164                           ;usb_device.c: 2104: if(SetupPkt.bDscIndex<3)
  7165  0FCC  3003               	movlw	3
  7166  0FCD  0020               	movlb	0	; select bank0
  7167  0FCE  0252               	subwf	82,w	;volatile
  7168  0FCF  1803               	skipnc
  7169  0FD0  2FED               	goto	i1l4664
  7170                           
  7171                           ;usb_device.c: 2105: {
  7172                           ;usb_device.c: 2107: inPipes[0].pSrc.bRom = *(USB_SD_Ptr+SetupPkt.bDscIndex);
  7173  0FD1  0852               	movf	82,w	;volatile
  7174  0FD2  00F0               	movwf	??_USBStdGetDscHandler
  7175  0FD3  01F1               	clrf	??_USBStdGetDscHandler+1
  7176  0FD4  35F0               	lslf	??_USBStdGetDscHandler,f
  7177  0FD5  0DF1               	rlf	??_USBStdGetDscHandler+1,f
  7178  0FD6  304C               	movlw	low (_USB_SD_Ptr| (0+32768))
  7179  0FD7  0770               	addwf	??_USBStdGetDscHandler,w
  7180  0FD8  0084               	movwf	4
  7181  0FD9  3085               	movlw	high (_USB_SD_Ptr| (0+32768))
  7182  0FDA  3D71               	addwfc	??_USBStdGetDscHandler+1,w
  7183  0FDB  0085               	movwf	5
  7184  0FDC  3F00               	moviw [0]fsr0
  7185  0FDD  0021               	movlb	1	; select bank1
  7186  0FDE  00E7               	movwf	_inPipes^(0+128)	;volatile
  7187  0FDF  3F01               	moviw [1]fsr0
  7188  0FE0  00E8               	movwf	(_inPipes+1)^(0+128)	;volatile
  7189                           
  7190                           ;usb_device.c: 2109: inPipes[0].wCount.Val = *inPipes[0].pSrc.bRom;
  7191  0FE1  0867               	movf	_inPipes^(0+128),w	;volatile
  7192  0FE2  0084               	movwf	4
  7193  0FE3  0868               	movf	(_inPipes+1)^(0+128),w	;volatile
  7194  0FE4  0085               	movwf	5
  7195  0FE5  0800               	movf	0,w	;code access
  7196  0FE6  00F0               	movwf	??_USBStdGetDscHandler
  7197  0FE7  01F1               	clrf	??_USBStdGetDscHandler+1
  7198  0FE8  0870               	movf	??_USBStdGetDscHandler,w
  7199  0FE9  00EA               	movwf	(_inPipes^(0+128)+3)	;volatile
  7200  0FEA  0871               	movf	??_USBStdGetDscHandler+1,w
  7201  0FEB  00EB               	movwf	((_inPipes+1)^(0+128)+3)	;volatile
  7202                           
  7203                           ;usb_device.c: 2110: }
  7204  0FEC  0008               	return
  7205  0FED                     i1l4664:	
  7206                           
  7207                           ;usb_device.c: 2120: else
  7208                           ;usb_device.c: 2121: {
  7209                           ;usb_device.c: 2122: inPipes[0].info.Val = 0;
  7210  0FED  0021               	movlb	1	; select bank1
  7211  0FEE  01E9               	clrf	(_inPipes^(0+128)+2)	;volatile
  7212                           
  7213                           ;usb_device.c: 2123: }
  7214                           ;usb_device.c: 2124: break;
  7215  0FEF  0008               	return
  7216  0FF0                     i1l4666:	
  7217                           ;usb_device.c: 2125: default:
  7218                           
  7219                           
  7220                           ;usb_device.c: 2126: inPipes[0].info.Val = 0;
  7221  0FF0  0021               	movlb	1	; select bank1
  7222  0FF1  01E9               	clrf	(_inPipes^(0+128)+2)	;volatile
  7223                           
  7224                           ;usb_device.c: 2128: }
  7225                           
  7226                           ;usb_device.c: 2127: break;
  7227  0FF2  0008               	return
  7228  0FF3                     i1l4670:	
  7229  0FF3  0020               	movlb	0	; select bank0
  7230  0FF4  0853               	movf	83,w	;volatile
  7231                           
  7232                           ; Switch size 1, requested type "space"
  7233                           ; Number of cases is 3, Range of values is 1 to 3
  7234                           ; switch strategies available:
  7235                           ; Name         Instructions Cycles
  7236                           ; simple_byte           10     6 (average)
  7237                           ; direct_byte           15     9 (fixed)
  7238                           ; jumptable            263     9 (fixed)
  7239                           ;	Chosen strategy is simple_byte
  7240  0FF5  3A01               	xorlw	1	; case 1
  7241  0FF6  1903               	skipnz
  7242  0FF7  2F8C               	goto	i1l4644
  7243  0FF8  3A03               	xorlw	3	; case 2
  7244  0FF9  1903               	skipnz
  7245  0FFA  2F96               	goto	i1l4648
  7246  0FFB  3A01               	xorlw	1	; case 3
  7247  0FFC  1903               	skipnz
  7248  0FFD  2FCC               	goto	i1l4658
  7249  0FFE  2FF0               	goto	i1l4666
  7250  0FFF  0008               	return
  7251  1000                     __end_of_USBStdGetDscHandler:	
  7252                           
  7253                           	psect	text28
  7254  004A                     __ptext28:	
  7255 ;; *************** function _USBStdFeatureReqHandler *****************
  7256 ;; Defined at:
  7257 ;;		line 2771 in file "/opt/microchip/mla/framework/usb/src/usb_device.c"
  7258 ;; Parameters:    Size  Location     Type
  7259 ;;		None
  7260 ;; Auto vars:     Size  Location     Type
  7261 ;;  pUEP            2   10[BANK0h] PTR unsigned char 
  7262 ;;		 -> UEP0(1), 
  7263 ;;  p               1   13[BANK0h] PTR struct __BDT
  7264 ;;		 -> BDT(48), NULL(0), 
  7265 ;;  current_ep_d    1   12[BANK0h] struct .
  7266 ;; Return value:  Size  Location     Type
  7267 ;;		None               void
  7268 ;; Registers used:
  7269 ;;		wreg, fsr0l, fsr0h, fsr1l, fsr1h, status,2, status,0, pclath, cstack
  7270 ;; Tracked objects:
  7271 ;;		On entry : 0/0
  7272 ;;		On exit  : 0/0
  7273 ;;		Unchanged: 0/0
  7274 ;; Data sizes:     COMMON  BANK0h   BANK1   BANK2   BANK3   BANK4   BANK5   BANK6   BANK7   BANK8   BANK9  BANK10  BANK1
      +1  BANK12
  7275 ;;      Params:         0       0       0       0       0       0       0       0       0       0       0       0       
      +0       0
  7276 ;;      Locals:         0       4       0       0       0       0       0       0       0       0       0       0       
      +0       0
  7277 ;;      Temps:          0       2       0       0       0       0       0       0       0       0       0       0       
      +0       0
  7278 ;;      Totals:         0       6       0       0       0       0       0       0       0       0       0       0       
      +0       0
  7279 ;;Total ram usage:        6 bytes
  7280 ;; Hardware stack levels used:    1
  7281 ;; Hardware stack levels required when called:    5
  7282 ;; This function calls:
  7283 ;;		_USER_USB_CALLBACK_EVENT_HANDLER
  7284 ;; This function is called by:
  7285 ;;		_USBCheckStdRequest
  7286 ;; This function uses a non-reentrant model
  7287 ;;
  7288                           
  7289                           
  7290                           ;psect for function _USBStdFeatureReqHandler
  7291  004A                     _USBStdFeatureReqHandler:	
  7292                           
  7293                           ;usb_device.c: 2773: BDT_ENTRY *p;
  7294                           ;usb_device.c: 2774: EP_STATUS current_ep_data;
  7295                           ;usb_device.c: 2778: unsigned char* pUEP;
  7296                           ;usb_device.c: 2816: if((SetupPkt.bFeature == 1)&&
  7297                           ;usb_device.c: 2817: (SetupPkt.Recipient == (0x00)))
  7298                           
  7299                           ;incstack = 0
  7300                           ; Regs used in _USBStdFeatureReqHandler: [wreg-fsr1h+status,2+status,0+pclath+cstack]
  7301  004A  0020               	movlb	0	; select bank0
  7302  004B  0352               	decf	82,w	;volatile
  7303  004C  1D03               	btfss	3,2
  7304  004D  2862               	goto	i1l4712
  7305  004E  0850               	movf	80,w	;volatile
  7306  004F  391F               	andlw	31
  7307  0050  3A00               	xorlw	0
  7308  0051  1D03               	skipz
  7309  0052  2862               	goto	i1l4712
  7310                           
  7311                           ;usb_device.c: 2818: {
  7312                           ;usb_device.c: 2819: inPipes[0].info.bits.busy = 1;
  7313  0053  0021               	movlb	1	; select bank1
  7314  0054  17E9               	bsf	(_inPipes^(0+128)+2),7	;volatile
  7315                           
  7316                           ;usb_device.c: 2820: if(SetupPkt.bRequest == 3)
  7317  0055  3003               	movlw	3
  7318  0056  0020               	movlb	0	; select bank0
  7319  0057  0651               	xorwf	81,w	;volatile
  7320  0058  1D03               	btfss	3,2
  7321  0059  2860               	goto	i1l4710
  7322                           
  7323                           ;usb_device.c: 2821: RemoteWakeup = 1;
  7324  005A  3001               	movlw	1
  7325  005B  00E8               	movwf	??_USBStdFeatureReqHandler
  7326  005C  0868               	movf	??_USBStdFeatureReqHandler,w
  7327  005D  0023               	movlb	3	; select bank3
  7328  005E  00C7               	movwf	_RemoteWakeup^(0+384)	;volatile
  7329  005F  2862               	goto	i1l4712
  7330  0060                     i1l4710:	
  7331                           
  7332                           ;usb_device.c: 2822: else
  7333                           ;usb_device.c: 2823: RemoteWakeup = 0;
  7334  0060  0023               	movlb	3	; select bank3
  7335  0061  01C7               	clrf	_RemoteWakeup^(0+384)	;volatile
  7336  0062                     i1l4712:	
  7337                           
  7338                           ;usb_device.c: 2824: }
  7339                           ;usb_device.c: 2827: if((SetupPkt.bFeature == 0)&&
  7340                           ;usb_device.c: 2828: (SetupPkt.Recipient == (0x02))&&
  7341                           ;usb_device.c: 2829: (SetupPkt.EPNum != 0) && (SetupPkt.EPNum <= 2)&&
  7342                           ;usb_device.c: 2830: (USBDeviceState == CONFIGURED_STATE))
  7343  0062  0020               	movlb	0	; select bank0
  7344  0063  0852               	movf	82,w	;volatile
  7345  0064  1D03               	btfss	3,2
  7346  0065  0008               	return
  7347  0066  0850               	movf	80,w	;volatile
  7348  0067  391F               	andlw	31
  7349  0068  3A02               	xorlw	2
  7350  0069  1D03               	skipz
  7351  006A  0008               	return
  7352  006B  0854               	movf	84,w	;volatile
  7353  006C  390F               	andlw	15
  7354  006D  3A00               	xorlw	0
  7355  006E  1903               	skipnz
  7356  006F  0008               	return
  7357  0070  0854               	movf	84,w	;volatile
  7358  0071  390F               	andlw	15
  7359  0072  00E8               	movwf	??_USBStdFeatureReqHandler
  7360  0073  3003               	movlw	3
  7361  0074  0268               	subwf	??_USBStdFeatureReqHandler,w
  7362  0075  1803               	skipnc
  7363  0076  0008               	return
  7364  0077  3020               	movlw	32
  7365  0078  0023               	movlb	3	; select bank3
  7366  0079  064C               	xorwf	_USBDeviceState^(0+384),w	;volatile
  7367  007A  1D03               	btfss	3,2
  7368  007B  0008               	return
  7369                           
  7370                           ;usb_device.c: 2831: {
  7371                           ;usb_device.c: 2834: inPipes[0].info.bits.busy = 1;
  7372  007C  0021               	movlb	1	; select bank1
  7373  007D  17E9               	bsf	(_inPipes^(0+128)+2),7	;volatile
  7374                           
  7375                           ;usb_device.c: 2837: if(SetupPkt.EPDir == 0)
  7376  007E  0020               	movlb	0	; select bank0
  7377  007F  1BD4               	btfsc	84,7	;volatile
  7378  0080  288F               	goto	i1l4726
  7379                           
  7380                           ;usb_device.c: 2838: {
  7381                           ;usb_device.c: 2839: p = (BDT_ENTRY*)pBDTEntryOut[SetupPkt.EPNum];
  7382  0081  0854               	movf	84,w	;volatile
  7383  0082  390F               	andlw	15
  7384  0083  3EB8               	addlw	(low (_pBDTEntryOut| (0+256)))& (0+255)
  7385  0084  0086               	movwf	6
  7386  0085  3001               	movlw	1	; select bank3/4
  7387  0086  0087               	movwf	7
  7388  0087  0801               	movf	1,w
  7389  0088  00E8               	movwf	??_USBStdFeatureReqHandler
  7390  0089  0868               	movf	??_USBStdFeatureReqHandler,w
  7391  008A  00ED               	movwf	USBStdFeatureReqHandler@p
  7392                           
  7393                           ;usb_device.c: 2840: current_ep_data.Val = ep_data_out[SetupPkt.EPNum].Val;
  7394  008B  0854               	movf	84,w	;volatile
  7395  008C  390F               	andlw	15
  7396  008D  3EB2               	addlw	(low (_ep_data_out| (0+256)))& (0+255)
  7397  008E  289C               	goto	L7
  7398  008F                     i1l4726:	
  7399                           ;usb_device.c: 2841: }
  7400                           
  7401                           
  7402                           ;usb_device.c: 2842: else
  7403                           ;usb_device.c: 2843: {
  7404                           ;usb_device.c: 2844: p = (BDT_ENTRY*)pBDTEntryIn[SetupPkt.EPNum];
  7405  008F  0854               	movf	84,w	;volatile
  7406  0090  390F               	andlw	15
  7407  0091  3EB5               	addlw	(low (_pBDTEntryIn| (0+256)))& (0+255)
  7408  0092  0086               	movwf	6
  7409  0093  3001               	movlw	1	; select bank3/4
  7410  0094  0087               	movwf	7
  7411  0095  0801               	movf	1,w
  7412  0096  00E8               	movwf	??_USBStdFeatureReqHandler
  7413  0097  0868               	movf	??_USBStdFeatureReqHandler,w
  7414  0098  00ED               	movwf	USBStdFeatureReqHandler@p
  7415                           
  7416                           ;usb_device.c: 2845: current_ep_data.Val = ep_data_in[SetupPkt.EPNum].Val;
  7417  0099  0854               	movf	84,w	;volatile
  7418  009A  390F               	andlw	15
  7419  009B  3EAF               	addlw	(low (_ep_data_in| (0+256)))& (0+255)
  7420  009C                     L7:	
  7421  009C  0086               	movwf	6
  7422  009D  3001               	movlw	1	; select bank3/4
  7423  009E  0087               	movwf	7
  7424  009F  0801               	movf	1,w
  7425  00A0  00E8               	movwf	??_USBStdFeatureReqHandler
  7426  00A1  0868               	movf	??_USBStdFeatureReqHandler,w
  7427  00A2  00EC               	movwf	USBStdFeatureReqHandler@current_ep_data
  7428                           
  7429                           ;usb_device.c: 2846: }
  7430                           ;usb_device.c: 2852: if(current_ep_data.bits.ping_pong_state == 0)
  7431  00A3  186C               	btfsc	USBStdFeatureReqHandler@current_ep_data,0
  7432  00A4  28AA               	goto	i1l489
  7433                           
  7434                           ;usb_device.c: 2853: {
  7435                           ;usb_device.c: 2854: {((uint8_t_VAL*)&p)->Val &= ~0x0004;};
  7436  00A5  30FB               	movlw	251
  7437  00A6  00E8               	movwf	??_USBStdFeatureReqHandler
  7438  00A7  0868               	movf	??_USBStdFeatureReqHandler,w
  7439  00A8  05ED               	andwf	USBStdFeatureReqHandler@p,f
  7440                           
  7441                           ;usb_device.c: 2855: }
  7442  00A9  28AB               	goto	i1l490
  7443  00AA                     i1l489:	
  7444                           
  7445                           ;usb_device.c: 2856: else
  7446                           ;usb_device.c: 2857: {
  7447                           ;usb_device.c: 2858: {((uint8_t_VAL*)&p)->Val |= 0x0004;};
  7448  00AA  156D               	bsf	USBStdFeatureReqHandler@p,2
  7449  00AB                     i1l490:	
  7450                           
  7451                           ;usb_device.c: 2859: }
  7452                           ;usb_device.c: 2864: if(SetupPkt.EPDir == 0)
  7453  00AB  1BD4               	btfsc	84,7	;volatile
  7454  00AC  28B3               	goto	i1l4734
  7455                           
  7456                           ;usb_device.c: 2865: {
  7457                           ;usb_device.c: 2866: pBDTEntryOut[SetupPkt.EPNum] = (volatile BDT_ENTRY *)p;
  7458  00AD  086D               	movf	USBStdFeatureReqHandler@p,w
  7459  00AE  00E8               	movwf	??_USBStdFeatureReqHandler
  7460  00AF  0854               	movf	84,w	;volatile
  7461  00B0  390F               	andlw	15
  7462  00B1  3EB8               	addlw	(low (_pBDTEntryOut| (0+256)))& (0+255)
  7463  00B2  28B8               	goto	L8
  7464  00B3                     i1l4734:	
  7465                           ;usb_device.c: 2867: }
  7466                           
  7467                           
  7468                           ;usb_device.c: 2868: else
  7469                           ;usb_device.c: 2869: {
  7470                           ;usb_device.c: 2870: pBDTEntryIn[SetupPkt.EPNum] = (volatile BDT_ENTRY *)p;
  7471  00B3  086D               	movf	USBStdFeatureReqHandler@p,w
  7472  00B4  00E8               	movwf	??_USBStdFeatureReqHandler
  7473  00B5  0854               	movf	84,w	;volatile
  7474  00B6  390F               	andlw	15
  7475  00B7  3EB5               	addlw	(low (_pBDTEntryIn| (0+256)))& (0+255)
  7476  00B8                     L8:	
  7477  00B8  0086               	movwf	6
  7478  00B9  3001               	movlw	1	; select bank3/4
  7479  00BA  0087               	movwf	7
  7480  00BB  0868               	movf	??_USBStdFeatureReqHandler,w
  7481  00BC  0081               	movwf	1
  7482                           
  7483                           ;usb_device.c: 2871: }
  7484                           ;usb_device.c: 2874: if(SetupPkt.bRequest == 3)
  7485  00BD  3003               	movlw	3
  7486  00BE  0651               	xorwf	81,w	;volatile
  7487  00BF  1D03               	btfss	3,2
  7488  00C0  28DC               	goto	i1l4750
  7489                           
  7490                           ;usb_device.c: 2875: {
  7491                           ;usb_device.c: 2876: if(p->STAT.UOWN == 1)
  7492  00C1  086D               	movf	USBStdFeatureReqHandler@p,w
  7493  00C2  0086               	movwf	6
  7494  00C3  0187               	clrf	7
  7495  00C4  1F81               	btfss	1,7
  7496  00C5  28D3               	goto	i1l4746
  7497                           
  7498                           ;usb_device.c: 2877: {
  7499                           ;usb_device.c: 2880: if(SetupPkt.EPDir == 0)
  7500  00C6  1BD4               	btfsc	84,7	;volatile
  7501  00C7  28CC               	goto	i1l4744
  7502                           
  7503                           ;usb_device.c: 2881: {
  7504                           ;usb_device.c: 2882: ep_data_out[SetupPkt.EPNum].bits.transfer_terminated = 1;
  7505  00C8  0854               	movf	84,w	;volatile
  7506  00C9  390F               	andlw	15
  7507  00CA  3EB2               	addlw	(low (_ep_data_out| (0+256)))& (0+255)
  7508  00CB  28CF               	goto	L9
  7509  00CC                     i1l4744:	
  7510                           ;usb_device.c: 2883: }
  7511                           
  7512                           
  7513                           ;usb_device.c: 2884: else
  7514                           ;usb_device.c: 2885: {
  7515                           ;usb_device.c: 2886: ep_data_in[SetupPkt.EPNum].bits.transfer_terminated = 1;
  7516  00CC  0854               	movf	84,w	;volatile
  7517  00CD  390F               	andlw	15
  7518  00CE  3EAF               	addlw	(low (_ep_data_in| (0+256)))& (0+255)
  7519  00CF                     L9:	
  7520  00CF  0086               	movwf	6
  7521  00D0  3001               	movlw	1	; select bank3/4
  7522  00D1  0087               	movwf	7
  7523  00D2  1481               	bsf	1,1
  7524  00D3                     i1l4746:	
  7525                           
  7526                           ;usb_device.c: 2887: }
  7527                           ;usb_device.c: 2888: }
  7528                           ;usb_device.c: 2891: p->STAT.Val |= 0x04;
  7529  00D3  086D               	movf	USBStdFeatureReqHandler@p,w
  7530  00D4  0086               	movwf	6
  7531  00D5  0187               	clrf	7
  7532  00D6  1501               	bsf	1,2
  7533                           
  7534                           ;usb_device.c: 2892: p->STAT.Val |= 0x80;
  7535  00D7  086D               	movf	USBStdFeatureReqHandler@p,w
  7536  00D8  0086               	movwf	6
  7537  00D9  0187               	clrf	7
  7538  00DA  1781               	bsf	1,7
  7539                           
  7540                           ;usb_device.c: 2893: }
  7541  00DB  0008               	return
  7542  00DC                     i1l4750:	
  7543                           
  7544                           ;usb_device.c: 2894: else
  7545                           ;usb_device.c: 2895: {
  7546                           ;usb_device.c: 2899: {((uint8_t_VAL*)&p)->Val ^= 0x0004;};
  7547  00DC  3004               	movlw	4
  7548  00DD  00E8               	movwf	??_USBStdFeatureReqHandler
  7549  00DE  0868               	movf	??_USBStdFeatureReqHandler,w
  7550  00DF  06ED               	xorwf	USBStdFeatureReqHandler@p,f
  7551                           
  7552                           ;usb_device.c: 2901: if(p->STAT.UOWN == 1)
  7553  00E0  086D               	movf	USBStdFeatureReqHandler@p,w
  7554  00E1  0086               	movwf	6
  7555  00E2  0187               	clrf	7
  7556  00E3  1F81               	btfss	1,7
  7557  00E4  2902               	goto	i1l4760
  7558                           
  7559                           ;usb_device.c: 2902: {
  7560                           ;usb_device.c: 2905: p->STAT.Val &= (~0x80);
  7561  00E5  307F               	movlw	127
  7562  00E6  00E8               	movwf	??_USBStdFeatureReqHandler
  7563  00E7  086D               	movf	USBStdFeatureReqHandler@p,w
  7564  00E8  0086               	movwf	6
  7565  00E9  0187               	clrf	7
  7566  00EA  0868               	movf	??_USBStdFeatureReqHandler,w
  7567  00EB  0581               	andwf	1,f
  7568                           
  7569                           ;usb_device.c: 2906: p->STAT.Val |= 0x40;
  7570  00EC  086D               	movf	USBStdFeatureReqHandler@p,w
  7571  00ED  0086               	movwf	6
  7572  00EE  0187               	clrf	7
  7573  00EF  1701               	bsf	1,6
  7574                           
  7575                           ;usb_device.c: 2907: USER_USB_CALLBACK_EVENT_HANDLER(EVENT_TRANSFER_TERMINATED,p,sizeof(
      +                          p));
  7576  00F0  3000               	movlw	0
  7577  00F1  00E3               	movwf	USER_USB_CALLBACK_EVENT_HANDLER@event+1
  7578  00F2  3005               	movlw	5
  7579  00F3  00E2               	movwf	USER_USB_CALLBACK_EVENT_HANDLER@event
  7580  00F4  086D               	movf	USBStdFeatureReqHandler@p,w
  7581  00F5  00E4               	movwf	USER_USB_CALLBACK_EVENT_HANDLER@pdata
  7582  00F6  39FF               	andlw	255
  7583  00F7  1D03               	skipz
  7584  00F8  3000               	movlw	0
  7585  00F9  00E5               	movwf	USER_USB_CALLBACK_EVENT_HANDLER@pdata+1
  7586  00FA  3001               	movlw	1
  7587  00FB  00E6               	movwf	USER_USB_CALLBACK_EVENT_HANDLER@size
  7588  00FC  3000               	movlw	0
  7589  00FD  00E7               	movwf	USER_USB_CALLBACK_EVENT_HANDLER@size+1
  7590  00FE  318A  2280  3180   	fcall	_USER_USB_CALLBACK_EVENT_HANDLER
  7591                           
  7592                           ;usb_device.c: 2908: }
  7593  0101  2907               	goto	i1l4762
  7594  0102                     i1l4760:	
  7595                           
  7596                           ;usb_device.c: 2909: else
  7597                           ;usb_device.c: 2910: {
  7598                           ;usb_device.c: 2912: p->STAT.Val |= 0x40;
  7599  0102  0020               	movlb	0	; select bank0
  7600  0103  086D               	movf	USBStdFeatureReqHandler@p,w
  7601  0104  0086               	movwf	6
  7602  0105  0187               	clrf	7
  7603  0106  1701               	bsf	1,6
  7604  0107                     i1l4762:	
  7605                           
  7606                           ;usb_device.c: 2913: }
  7607                           ;usb_device.c: 2917: {((uint8_t_VAL*)&p)->Val ^= 0x0004;};
  7608  0107  3004               	movlw	4
  7609  0108  0020               	movlb	0	; select bank0
  7610  0109  00E8               	movwf	??_USBStdFeatureReqHandler
  7611  010A  0868               	movf	??_USBStdFeatureReqHandler,w
  7612  010B  06ED               	xorwf	USBStdFeatureReqHandler@p,f
  7613                           
  7614                           ;usb_device.c: 2923: if((current_ep_data.bits.transfer_terminated != 0) || (p->STAT.UOWN
      +                           == 1))
  7615  010C  18EC               	btfsc	USBStdFeatureReqHandler@current_ep_data,1
  7616  010D  2913               	goto	i1l502
  7617  010E  086D               	movf	USBStdFeatureReqHandler@p,w
  7618  010F  0086               	movwf	6
  7619  0110  0187               	clrf	7
  7620  0111  1F81               	btfss	1,7
  7621  0112  2939               	goto	i1l4774
  7622  0113                     i1l502:	
  7623                           
  7624                           ;usb_device.c: 2924: {
  7625                           ;usb_device.c: 2925: if(SetupPkt.EPDir == 0)
  7626  0113  1BD4               	btfsc	84,7	;volatile
  7627  0114  2919               	goto	i1l4770
  7628                           
  7629                           ;usb_device.c: 2926: {
  7630                           ;usb_device.c: 2927: ep_data_out[SetupPkt.EPNum].bits.transfer_terminated = 0;
  7631  0115  0854               	movf	84,w	;volatile
  7632  0116  390F               	andlw	15
  7633  0117  3EB2               	addlw	(low (_ep_data_out| (0+256)))& (0+255)
  7634  0118  291C               	goto	L10
  7635  0119                     i1l4770:	
  7636                           ;usb_device.c: 2928: }
  7637                           
  7638                           
  7639                           ;usb_device.c: 2929: else
  7640                           ;usb_device.c: 2930: {
  7641                           ;usb_device.c: 2931: ep_data_in[SetupPkt.EPNum].bits.transfer_terminated = 0;
  7642  0119  0854               	movf	84,w	;volatile
  7643  011A  390F               	andlw	15
  7644  011B  3EAF               	addlw	(low (_ep_data_in| (0+256)))& (0+255)
  7645  011C                     L10:	
  7646  011C  0086               	movwf	6
  7647  011D  3001               	movlw	1	; select bank3/4
  7648  011E  0087               	movwf	7
  7649  011F  1081               	bcf	1,1
  7650                           
  7651                           ;usb_device.c: 2932: }
  7652                           ;usb_device.c: 2934: p->STAT.Val &= ~(0x80 | 0x40 | 0x04);
  7653  0120  303B               	movlw	59
  7654  0121  00E8               	movwf	??_USBStdFeatureReqHandler
  7655  0122  086D               	movf	USBStdFeatureReqHandler@p,w
  7656  0123  0086               	movwf	6
  7657  0124  0187               	clrf	7
  7658  0125  0868               	movf	??_USBStdFeatureReqHandler,w
  7659  0126  0581               	andwf	1,f
  7660                           
  7661                           ;usb_device.c: 2937: USER_USB_CALLBACK_EVENT_HANDLER(EVENT_TRANSFER_TERMINATED,p,sizeof(
      +                          p));
  7662  0127  3000               	movlw	0
  7663  0128  00E3               	movwf	USER_USB_CALLBACK_EVENT_HANDLER@event+1
  7664  0129  3005               	movlw	5
  7665  012A  00E2               	movwf	USER_USB_CALLBACK_EVENT_HANDLER@event
  7666  012B  086D               	movf	USBStdFeatureReqHandler@p,w
  7667  012C  00E4               	movwf	USER_USB_CALLBACK_EVENT_HANDLER@pdata
  7668  012D  39FF               	andlw	255
  7669  012E  1D03               	skipz
  7670  012F  3000               	movlw	0
  7671  0130  00E5               	movwf	USER_USB_CALLBACK_EVENT_HANDLER@pdata+1
  7672  0131  3001               	movlw	1
  7673  0132  00E6               	movwf	USER_USB_CALLBACK_EVENT_HANDLER@size
  7674  0133  3000               	movlw	0
  7675  0134  00E7               	movwf	USER_USB_CALLBACK_EVENT_HANDLER@size+1
  7676  0135  318A  2280  3180   	fcall	_USER_USB_CALLBACK_EVENT_HANDLER
  7677                           
  7678                           ;usb_device.c: 2938: }
  7679  0138  2941               	goto	i1l4776
  7680  0139                     i1l4774:	
  7681                           
  7682                           ;usb_device.c: 2939: else
  7683                           ;usb_device.c: 2940: {
  7684                           ;usb_device.c: 2942: p->STAT.Val &= ~(0x80 | 0x40 | 0x04);
  7685  0139  303B               	movlw	59
  7686  013A  0020               	movlb	0	; select bank0
  7687  013B  00E8               	movwf	??_USBStdFeatureReqHandler
  7688  013C  086D               	movf	USBStdFeatureReqHandler@p,w
  7689  013D  0086               	movwf	6
  7690  013E  0187               	clrf	7
  7691  013F  0868               	movf	??_USBStdFeatureReqHandler,w
  7692  0140  0581               	andwf	1,f
  7693  0141                     i1l4776:	
  7694                           
  7695                           ;usb_device.c: 2943: }
  7696                           ;usb_device.c: 2990: pUEP = (unsigned char*)(&UEP0+SetupPkt.EPNum);
  7697  0141  0020               	movlb	0	; select bank0
  7698  0142  0854               	movf	84,w	;volatile
  7699  0143  390F               	andlw	15
  7700  0144  3E98               	addlw	152
  7701  0145  00E8               	movwf	??_USBStdFeatureReqHandler
  7702  0146  01E9               	clrf	??_USBStdFeatureReqHandler+1
  7703  0147  300E               	movlw	14
  7704  0148  3DE9               	addwfc	??_USBStdFeatureReqHandler+1,f
  7705  0149  0868               	movf	??_USBStdFeatureReqHandler,w
  7706  014A  00EA               	movwf	USBStdFeatureReqHandler@pUEP
  7707  014B  0869               	movf	??_USBStdFeatureReqHandler+1,w
  7708  014C  00EB               	movwf	USBStdFeatureReqHandler@pUEP+1
  7709                           
  7710                           ;usb_device.c: 2994: *pUEP &= ~0x0001;
  7711  014D  30FE               	movlw	254
  7712  014E  00E8               	movwf	??_USBStdFeatureReqHandler
  7713  014F  086A               	movf	USBStdFeatureReqHandler@pUEP,w
  7714  0150  0086               	movwf	6
  7715  0151  086B               	movf	USBStdFeatureReqHandler@pUEP+1,w
  7716  0152  0087               	movwf	7
  7717  0153  0868               	movf	??_USBStdFeatureReqHandler,w
  7718  0154  0581               	andwf	1,f
  7719  0155  0008               	return
  7720  0156                     __end_of_USBStdFeatureReqHandler:	
  7721                           
  7722                           	psect	text29
  7723  0A80                     __ptext29:	
  7724 ;; *************** function _USER_USB_CALLBACK_EVENT_HANDLER *****************
  7725 ;; Defined at:
  7726 ;;		line 167 in file "main.c"
  7727 ;; Parameters:    Size  Location     Type
  7728 ;;  event           2    2[BANK0h] enum E2495
  7729 ;;  pdata           2    4[BANK0h] PTR void 
  7730 ;;		 -> USTATcopy(1), USBActiveConfiguration(1), BDT(48), NULL(0), 
  7731 ;;  size            2    6[BANK0h] unsigned int 
  7732 ;; Auto vars:     Size  Location     Type
  7733 ;;		None
  7734 ;; Return value:  Size  Location     Type
  7735 ;;                  1    wreg      unsigned char 
  7736 ;; Registers used:
  7737 ;;		wreg, fsr0l, fsr0h, fsr1l, fsr1h, status,2, status,0, pclath, cstack
  7738 ;; Tracked objects:
  7739 ;;		On entry : 0/0
  7740 ;;		On exit  : 0/0
  7741 ;;		Unchanged: 0/0
  7742 ;; Data sizes:     COMMON  BANK0h   BANK1   BANK2   BANK3   BANK4   BANK5   BANK6   BANK7   BANK8   BANK9  BANK10  BANK1
      +1  BANK12
  7743 ;;      Params:         0       6       0       0       0       0       0       0       0       0       0       0       
      +0       0
  7744 ;;      Locals:         0       0       0       0       0       0       0       0       0       0       0       0       
      +0       0
  7745 ;;      Temps:          0       0       0       0       0       0       0       0       0       0       0       0       
      +0       0
  7746 ;;      Totals:         0       6       0       0       0       0       0       0       0       0       0       0       
      +0       0
  7747 ;;Total ram usage:        6 bytes
  7748 ;; Hardware stack levels used:    1
  7749 ;; Hardware stack levels required when called:    4
  7750 ;; This function calls:
  7751 ;;		_APP_DeviceCDCBasicDemoInitialize
  7752 ;;		_APP_LEDUpdateUSBStatus
  7753 ;;		_USBCheckCDCRequest
  7754 ;;		i1_SYSTEM_Initialize
  7755 ;; This function is called by:
  7756 ;;		_USBDeviceTasks
  7757 ;;		_USBStdSetCfgHandler
  7758 ;;		_USBSuspend
  7759 ;;		_USBWakeFromSuspend
  7760 ;;		_USBCtrlTrfSetupHandler
  7761 ;;		_USBCheckStdRequest
  7762 ;;		_USBStdFeatureReqHandler
  7763 ;; This function uses a non-reentrant model
  7764 ;;
  7765                           
  7766                           
  7767                           ;psect for function _USER_USB_CALLBACK_EVENT_HANDLER
  7768  0A80                     _USER_USB_CALLBACK_EVENT_HANDLER:	
  7769                           
  7770                           ;main.c: 169: switch( (int) event )
  7771                           
  7772                           ;incstack = 0
  7773                           ; Regs used in _USER_USB_CALLBACK_EVENT_HANDLER: [wreg-fsr1h+status,2+status,0+pclath+cs
      +                          tack]
  7774  0A80  2A98               	goto	i1l4470
  7775  0A81                     i1l4458:	
  7776                           ;main.c: 174: case EVENT_SOF:
  7777                           
  7778                           ;main.c: 172: break;
  7779                           
  7780                           ;main.c: 170: {
  7781                           ;main.c: 171: case EVENT_TRANSFER:
  7782                           
  7783                           
  7784                           ;main.c: 177: APP_LEDUpdateUSBStatus();
  7785  0A81  318B  239B         	fcall	_APP_LEDUpdateUSBStatus
  7786                           
  7787                           ;main.c: 178: break;
  7788  0A83  0008               	return
  7789  0A84                     i1l4460:	
  7790                           ;main.c: 180: case EVENT_SUSPEND:
  7791                           
  7792                           
  7793                           ;main.c: 182: APP_LEDUpdateUSBStatus();
  7794  0A84  318B  239B  318A   	fcall	_APP_LEDUpdateUSBStatus
  7795                           
  7796                           ;main.c: 190: SYSTEM_Initialize(SYSTEM_STATE_USB_SUSPEND);
  7797  0A87  3001               	movlw	1
  7798  0A88  3188  2073         	fcall	i1_SYSTEM_Initialize
  7799                           
  7800                           ;main.c: 191: break;
  7801  0A8A  0008               	return
  7802  0A8B                     i1l4462:	
  7803                           ;main.c: 193: case EVENT_RESUME:
  7804                           
  7805                           
  7806                           ;main.c: 195: APP_LEDUpdateUSBStatus();
  7807  0A8B  318B  239B  318A   	fcall	_APP_LEDUpdateUSBStatus
  7808                           
  7809                           ;main.c: 201: SYSTEM_Initialize(SYSTEM_STATE_USB_RESUME);
  7810  0A8E  3002               	movlw	2
  7811  0A8F  3188  2073         	fcall	i1_SYSTEM_Initialize
  7812                           
  7813                           ;main.c: 202: break;
  7814  0A91  0008               	return
  7815  0A92                     i1l4464:	
  7816                           ;main.c: 204: case EVENT_CONFIGURED:
  7817                           
  7818                           
  7819                           ;main.c: 207: APP_DeviceCDCBasicDemoInitialize();
  7820  0A92  3188  2060         	fcall	_APP_DeviceCDCBasicDemoInitialize
  7821                           
  7822                           ;main.c: 211: break;
  7823                           
  7824                           ;main.c: 210: case EVENT_SET_DESCRIPTOR:
  7825                           
  7826                           ;main.c: 208: break;
  7827  0A94  0008               	return
  7828  0A95                     i1l4466:	
  7829                           ;main.c: 213: case EVENT_EP0_REQUEST:
  7830                           
  7831                           
  7832                           ;main.c: 216: USBCheckCDCRequest();
  7833  0A95  318D  257A         	fcall	_USBCheckCDCRequest
  7834                           
  7835                           ;main.c: 227: }
  7836                           
  7837                           ;main.c: 226: break;
  7838                           
  7839                           ;main.c: 225: default:
  7840                           
  7841                           ;main.c: 223: break;
  7842                           
  7843                           ;main.c: 222: case EVENT_TRANSFER_TERMINATED:
  7844                           
  7845                           ;main.c: 220: break;
  7846                           
  7847                           ;main.c: 219: case EVENT_BUS_ERROR:
  7848                           
  7849                           ;main.c: 217: break;
  7850  0A97  0008               	return
  7851  0A98                     i1l4470:	
  7852                           
  7853                           ; Switch on 2 bytes has been partitioned into a top level switch of size 1, and 2 sub-sw
      +                          itches
  7854                           ; Switch size 1, requested type "space"
  7855                           ; Number of cases is 2, Range of values is 0 to 127
  7856                           ; switch strategies available:
  7857                           ; Name         Instructions Cycles
  7858                           ; simple_byte            7     4 (average)
  7859                           ; direct_byte          262     6 (fixed)
  7860                           ; jumptable            260     6 (fixed)
  7861                           ;	Chosen strategy is simple_byte
  7862  0A98  0020               	movlb	0	; select bank0
  7863  0A99  0863               	movf	USER_USB_CALLBACK_EVENT_HANDLER@event+1,w
  7864  0A9A  3A00               	xorlw	0	; case 0
  7865  0A9B  1903               	skipnz
  7866  0A9C  2AA1               	goto	i1l5762
  7867  0A9D  3A7F               	xorlw	127	; case 127
  7868  0A9E  1903               	skipnz
  7869  0A9F  2ABB               	goto	i1l5764
  7870  0AA0  2AC0               	goto	i1l591
  7871  0AA1                     i1l5762:	
  7872                           
  7873                           ; Switch size 1, requested type "space"
  7874                           ; Number of cases is 8, Range of values is 1 to 117
  7875                           ; switch strategies available:
  7876                           ; Name         Instructions Cycles
  7877                           ; simple_byte           25    13 (average)
  7878                           ; direct_byte          243     9 (fixed)
  7879                           ; jumptable            263     9 (fixed)
  7880                           ;	Chosen strategy is simple_byte
  7881  0AA1  0862               	movf	USER_USB_CALLBACK_EVENT_HANDLER@event,w
  7882  0AA2  3A01               	xorlw	1	; case 1
  7883  0AA3  1903               	skipnz
  7884  0AA4  2A92               	goto	i1l4464
  7885  0AA5  3A03               	xorlw	3	; case 2
  7886  0AA6  1903               	skipnz
  7887  0AA7  2AC0               	goto	i1l591
  7888  0AA8  3A01               	xorlw	1	; case 3
  7889  0AA9  1903               	skipnz
  7890  0AAA  2A95               	goto	i1l4466
  7891  0AAB  3A06               	xorlw	6	; case 5
  7892  0AAC  1903               	skipnz
  7893  0AAD  2AC0               	goto	i1l591
  7894  0AAE  3A77               	xorlw	119	; case 114
  7895  0AAF  1903               	skipnz
  7896  0AB0  2AC0               	goto	i1l591
  7897  0AB1  3A01               	xorlw	1	; case 115
  7898  0AB2  1903               	skipnz
  7899  0AB3  2A81               	goto	i1l4458
  7900  0AB4  3A07               	xorlw	7	; case 116
  7901  0AB5  1903               	skipnz
  7902  0AB6  2A8B               	goto	i1l4462
  7903  0AB7  3A01               	xorlw	1	; case 117
  7904  0AB8  1903               	skipnz
  7905  0AB9  2A84               	goto	i1l4460
  7906  0ABA  2AC0               	goto	i1l591
  7907  0ABB                     i1l5764:	
  7908                           
  7909                           ; Switch size 1, requested type "space"
  7910                           ; Number of cases is 1, Range of values is 255 to 255
  7911                           ; switch strategies available:
  7912                           ; Name         Instructions Cycles
  7913                           ; simple_byte            4     3 (average)
  7914                           ; direct_byte            7     5 (fixed)
  7915                           ; jumptable            263     9 (fixed)
  7916                           ;	Chosen strategy is simple_byte
  7917  0ABB  0862               	movf	USER_USB_CALLBACK_EVENT_HANDLER@event,w
  7918  0ABC  3AFF               	xorlw	255	; case 255
  7919  0ABD  1903               	skipnz
  7920  0ABE  2AC0               	goto	i1l591
  7921  0ABF  2AC0               	goto	i1l591
  7922  0AC0                     i1l591:	
  7923                           ;main.c: 228: return 1;
  7924                           ;	Return value of _USER_USB_CALLBACK_EVENT_HANDLER is never used
  7925                           
  7926  0AC0  0008               	return
  7927  0AC1                     __end_of_USER_USB_CALLBACK_EVENT_HANDLER:	
  7928                           
  7929                           	psect	text30
  7930  0873                     __ptext30:	
  7931 ;; *************** function i1_SYSTEM_Initialize *****************
  7932 ;; Defined at:
  7933 ;;		line 86 in file "system.c"
  7934 ;; Parameters:    Size  Location     Type
  7935 ;;  state           1    wreg     enum E2448
  7936 ;; Auto vars:     Size  Location     Type
  7937 ;;  state           1    0[COMMON] enum E2448
  7938 ;; Return value:  Size  Location     Type
  7939 ;;		None               void
  7940 ;; Registers used:
  7941 ;;		wreg, fsr0l, fsr0h, status,2, status,0
  7942 ;; Tracked objects:
  7943 ;;		On entry : 0/0
  7944 ;;		On exit  : 0/0
  7945 ;;		Unchanged: 0/0
  7946 ;; Data sizes:     COMMON  BANK0h   BANK1   BANK2   BANK3   BANK4   BANK5   BANK6   BANK7   BANK8   BANK9  BANK10  BANK1
      +1  BANK12
  7947 ;;      Params:         0       0       0       0       0       0       0       0       0       0       0       0       
      +0       0
  7948 ;;      Locals:         1       0       0       0       0       0       0       0       0       0       0       0       
      +0       0
  7949 ;;      Temps:          0       0       0       0       0       0       0       0       0       0       0       0       
      +0       0
  7950 ;;      Totals:         1       0       0       0       0       0       0       0       0       0       0       0       
      +0       0
  7951 ;;Total ram usage:        1 bytes
  7952 ;; Hardware stack levels used:    1
  7953 ;; This function calls:
  7954 ;;		Nothing
  7955 ;; This function is called by:
  7956 ;;		_USER_USB_CALLBACK_EVENT_HANDLER
  7957 ;; This function uses a non-reentrant model
  7958 ;;
  7959                           
  7960                           
  7961                           ;psect for function i1_SYSTEM_Initialize
  7962  0873                     i1_SYSTEM_Initialize:	
  7963                           
  7964                           ;incstack = 0
  7965                           ; Regs used in i1_SYSTEM_Initialize: [wreg-fsr0h+status,2+status,0]
  7966                           ;i1SYSTEM_Initialize@state stored from wreg
  7967  0873  00F0               	movwf	i1SYSTEM_Initialize@state
  7968                           
  7969                           ;system.c: 88: switch(state)
  7970  0874  287C               	goto	i1l4454
  7971  0875                     i1l4450:	
  7972                           ;system.c: 89: {
  7973                           ;system.c: 90: case SYSTEM_STATE_USB_START:
  7974                           
  7975                           
  7976                           ;system.c: 94: OSCCON = 0xFC;
  7977  0875  30FC               	movlw	252
  7978  0876  0021               	movlb	1	; select bank1
  7979  0877  0099               	movwf	25	;volatile
  7980                           
  7981                           ;system.c: 95: ACTCON = 0x90;
  7982  0878  3090               	movlw	144
  7983  0879  0027               	movlb	7	; select bank7
  7984  087A  009B               	movwf	27	;volatile
  7985                           
  7986                           ;system.c: 104: }
  7987                           
  7988                           ;system.c: 103: break;
  7989                           
  7990                           ;system.c: 102: case SYSTEM_STATE_USB_RESUME:
  7991                           
  7992                           ;system.c: 100: break;
  7993                           
  7994                           ;system.c: 99: case SYSTEM_STATE_USB_SUSPEND:
  7995                           
  7996                           ;system.c: 97: break;
  7997  087B  0008               	return
  7998  087C                     i1l4454:	
  7999  087C  0870               	movf	i1SYSTEM_Initialize@state,w
  8000                           
  8001                           ; Switch size 1, requested type "space"
  8002                           ; Number of cases is 3, Range of values is 0 to 2
  8003                           ; switch strategies available:
  8004                           ; Name         Instructions Cycles
  8005                           ; simple_byte           10     6 (average)
  8006                           ; direct_byte           12     6 (fixed)
  8007                           ; jumptable            260     6 (fixed)
  8008                           ;	Chosen strategy is simple_byte
  8009  087D  3A00               	xorlw	0	; case 0
  8010  087E  1903               	skipnz
  8011  087F  2875               	goto	i1l4450
  8012  0880  3A01               	xorlw	1	; case 1
  8013  0881  1903               	skipnz
  8014  0882  2887               	goto	i1l703
  8015  0883  3A03               	xorlw	3	; case 2
  8016  0884  1903               	skipnz
  8017  0885  2887               	goto	i1l703
  8018  0886  2887               	goto	i1l703
  8019  0887                     i1l703:	
  8020  0887  0008               	return
  8021  0888                     __end_ofi1_SYSTEM_Initialize:	
  8022                           
  8023                           	psect	text31
  8024  0D7A                     __ptext31:	
  8025 ;; *************** function _USBCheckCDCRequest *****************
  8026 ;; Defined at:
  8027 ;;		line 147 in file "/opt/microchip/mla/framework/usb/src/usb_device_cdc.c"
  8028 ;; Parameters:    Size  Location     Type
  8029 ;;		None
  8030 ;; Auto vars:     Size  Location     Type
  8031 ;;		None
  8032 ;; Return value:  Size  Location     Type
  8033 ;;		None               void
  8034 ;; Registers used:
  8035 ;;		wreg, fsr0l, fsr0h, status,2, status,0
  8036 ;; Tracked objects:
  8037 ;;		On entry : 0/0
  8038 ;;		On exit  : 0/0
  8039 ;;		Unchanged: 0/0
  8040 ;; Data sizes:     COMMON  BANK0h   BANK1   BANK2   BANK3   BANK4   BANK5   BANK6   BANK7   BANK8   BANK9  BANK10  BANK1
      +1  BANK12
  8041 ;;      Params:         0       0       0       0       0       0       0       0       0       0       0       0       
      +0       0
  8042 ;;      Locals:         0       0       0       0       0       0       0       0       0       0       0       0       
      +0       0
  8043 ;;      Temps:          1       0       0       0       0       0       0       0       0       0       0       0       
      +0       0
  8044 ;;      Totals:         1       0       0       0       0       0       0       0       0       0       0       0       
      +0       0
  8045 ;;Total ram usage:        1 bytes
  8046 ;; Hardware stack levels used:    1
  8047 ;; This function calls:
  8048 ;;		Nothing
  8049 ;; This function is called by:
  8050 ;;		_USER_USB_CALLBACK_EVENT_HANDLER
  8051 ;; This function uses a non-reentrant model
  8052 ;;
  8053                           
  8054                           
  8055                           ;psect for function _USBCheckCDCRequest
  8056  0D7A                     _USBCheckCDCRequest:	
  8057                           
  8058                           ;usb_device_cdc.c: 152: if(SetupPkt.Recipient != (0x01)) return;
  8059                           
  8060                           ;incstack = 0
  8061                           ; Regs used in _USBCheckCDCRequest: [wreg-fsr0h+status,2+status,0]
  8062  0D7A  0020               	movlb	0	; select bank0
  8063  0D7B  0850               	movf	80,w	;volatile
  8064  0D7C  391F               	andlw	31
  8065  0D7D  3A01               	xorlw	1
  8066  0D7E  1D03               	btfss	3,2
  8067  0D7F  0008               	return
  8068                           
  8069                           ;usb_device_cdc.c: 157: if(SetupPkt.RequestType != (0x20>>5)) return;
  8070  0D80  0E50               	swapf	80,w	;volatile
  8071  0D81  0C89               	rrf	9,f
  8072  0D82  3903               	andlw	3
  8073  0D83  3A01               	xorlw	1
  8074  0D84  1D03               	btfss	3,2
  8075  0D85  0008               	return
  8076                           
  8077                           ;usb_device_cdc.c: 163: if((SetupPkt.bIntfID != 0x0)&&
  8078                           ;usb_device_cdc.c: 164: (SetupPkt.bIntfID != 0x01)) return;
  8079  0D86  0854               	movf	84,w	;volatile
  8080  0D87  1903               	btfsc	3,2
  8081  0D88  2DC7               	goto	i1l4398
  8082  0D89  0354               	decf	84,w	;volatile
  8083  0D8A  1D03               	btfss	3,2
  8084  0D8B  0008               	return
  8085  0D8C  2DC7               	goto	i1l4398
  8086  0D8D                     i1l4368:	
  8087                           ;usb_device_cdc.c: 167: {
  8088                           ;usb_device_cdc.c: 169: case 0x00:
  8089                           
  8090                           ;usb_device_cdc.c: 166: switch(SetupPkt.bRequest)
  8091                           
  8092                           
  8093                           ;usb_device_cdc.c: 171: inPipes[0].pSrc.bRam = (uint8_t*)&dummy_encapsulated_cmd_respons
      +                          e;
  8094  0D8D  3048               	movlw	low _dummy_encapsulated_cmd_response
  8095  0D8E  0021               	movlb	1	; select bank1
  8096  0D8F  00E7               	movwf	_inPipes^(0+128)	;volatile
  8097  0D90  3002               	movlw	high _dummy_encapsulated_cmd_response
  8098  0D91  00E8               	movwf	(_inPipes+1)^(0+128)	;volatile
  8099                           
  8100                           ;usb_device_cdc.c: 172: inPipes[0].wCount.Val = 0x08;
  8101  0D92  3000               	movlw	0
  8102  0D93  00EB               	movwf	((_inPipes+1)^(0+128)+3)	;volatile
  8103  0D94  3008               	movlw	8
  8104  0D95  00EA               	movwf	(_inPipes^(0+128)+3)	;volatile
  8105                           
  8106                           ;usb_device_cdc.c: 173: inPipes[0].info.bits.ctrl_trf_mem = 0x01;
  8107  0D96  1469               	bsf	(_inPipes^(0+128)+2),0	;volatile
  8108                           
  8109                           ;usb_device_cdc.c: 174: inPipes[0].info.bits.busy = 1;
  8110  0D97  17E9               	bsf	(_inPipes^(0+128)+2),7	;volatile
  8111                           
  8112                           ;usb_device_cdc.c: 175: break;
  8113  0D98  0008               	return
  8114  0D99                     i1l4376:	
  8115                           ;usb_device_cdc.c: 176: case 0x01:
  8116                           
  8117                           
  8118                           ;usb_device_cdc.c: 178: inPipes[0].pSrc.bRam = (uint8_t*)&dummy_encapsulated_cmd_respons
      +                          e;
  8119  0D99  3048               	movlw	low _dummy_encapsulated_cmd_response
  8120  0D9A  0021               	movlb	1	; select bank1
  8121  0D9B  00E7               	movwf	_inPipes^(0+128)	;volatile
  8122  0D9C  3002               	movlw	high _dummy_encapsulated_cmd_response
  8123  0D9D  00E8               	movwf	(_inPipes+1)^(0+128)	;volatile
  8124                           
  8125                           ;usb_device_cdc.c: 179: inPipes[0].info.bits.busy = 1;
  8126  0D9E  17E9               	bsf	(_inPipes^(0+128)+2),7	;volatile
  8127                           
  8128                           ;usb_device_cdc.c: 180: break;
  8129  0D9F  0008               	return
  8130  0DA0                     i1l4380:	
  8131                           ;usb_device_cdc.c: 184: case 0x20:
  8132                           
  8133                           
  8134                           ;usb_device_cdc.c: 185: outPipes[0].wCount.Val = SetupPkt.wLength;
  8135  0DA0  0020               	movlb	0	; select bank0
  8136  0DA1  0857               	movf	87,w	;volatile
  8137  0DA2  0023               	movlb	3	; select bank3
  8138  0DA3  00A4               	movwf	((_outPipes+1)^(0+384)+3)	;volatile
  8139  0DA4  0020               	movlb	0	; select bank0
  8140  0DA5  0856               	movf	86,w	;volatile
  8141  0DA6  0023               	movlb	3	; select bank3
  8142  0DA7  00A3               	movwf	(_outPipes^(0+384)+3)	;volatile
  8143                           
  8144                           ;usb_device_cdc.c: 186: outPipes[0].pDst.bRam = (uint8_t*)&line_coding._byte[0];
  8145  0DA8  30E4               	movlw	(low (_line_coding| (0+256)))& (0+255)
  8146  0DA9  00F0               	movwf	??_USBCheckCDCRequest
  8147  0DAA  0870               	movf	??_USBCheckCDCRequest,w
  8148  0DAB  00A0               	movwf	_outPipes^(0+384)	;volatile
  8149                           
  8150                           ;usb_device_cdc.c: 187: outPipes[0].pFunc = (0);
  8151  0DAC  01A5               	clrf	(low ((_outPipes| (0+256)+5)))^(0+128)	;volatile
  8152  0DAD  01A6               	clrf	((low ((_outPipes| (0+256)+5))+1))^(0+128)	;volatile
  8153                           
  8154                           ;usb_device_cdc.c: 188: outPipes[0].info.bits.busy = 1;
  8155  0DAE  17A2               	bsf	(_outPipes^(0+384)+2),7	;volatile
  8156                           
  8157                           ;usb_device_cdc.c: 189: break;
  8158  0DAF  0008               	return
  8159  0DB0                     i1l4386:	
  8160                           ;usb_device_cdc.c: 191: case 0x21:
  8161                           
  8162                           
  8163                           ;usb_device_cdc.c: 192: { inPipes[0].pSrc.bRam = (uint8_t*)&line_coding; inPipes[0].wCou
      +                          nt.Val = 0x07; inPipes[0].info.Val = 0x40 | 0x80 | 0x01; };
  8164  0DB0  30E4               	movlw	low _line_coding
  8165  0DB1  0021               	movlb	1	; select bank1
  8166  0DB2  00E7               	movwf	_inPipes^(0+128)	;volatile
  8167  0DB3  3001               	movlw	high _line_coding
  8168  0DB4  00E8               	movwf	(_inPipes+1)^(0+128)	;volatile
  8169  0DB5  3000               	movlw	0
  8170  0DB6  00EB               	movwf	((_inPipes+1)^(0+128)+3)	;volatile
  8171  0DB7  3007               	movlw	7
  8172  0DB8  00EA               	movwf	(_inPipes^(0+128)+3)	;volatile
  8173  0DB9  30C1               	movlw	193
  8174  0DBA  00F0               	movwf	??_USBCheckCDCRequest
  8175  0DBB  0870               	movf	??_USBCheckCDCRequest,w
  8176  0DBC  00E9               	movwf	(_inPipes^(0+128)+2)	;volatile
  8177                           
  8178                           ;usb_device_cdc.c: 196: break;
  8179  0DBD  0008               	return
  8180  0DBE                     i1l4392:	
  8181                           ;usb_device_cdc.c: 198: case 0x22:
  8182                           
  8183                           
  8184                           ;usb_device_cdc.c: 199: control_signal_bitmap._byte = (uint8_t)SetupPkt.wValue;
  8185  0DBE  0020               	movlb	0	; select bank0
  8186  0DBF  0852               	movf	82,w	;volatile
  8187  0DC0  00F0               	movwf	??_USBCheckCDCRequest
  8188  0DC1  0870               	movf	??_USBCheckCDCRequest,w
  8189  0DC2  0023               	movlb	3	; select bank3
  8190  0DC3  00D7               	movwf	_control_signal_bitmap^(0+384)
  8191                           
  8192                           ;usb_device_cdc.c: 231: inPipes[0].info.bits.busy = 1;
  8193  0DC4  0021               	movlb	1	; select bank1
  8194  0DC5  17E9               	bsf	(_inPipes^(0+128)+2),7	;volatile
  8195                           
  8196                           ;usb_device_cdc.c: 258: }
  8197                           
  8198                           ;usb_device_cdc.c: 257: break;
  8199                           
  8200                           ;usb_device_cdc.c: 256: default:
  8201                           
  8202                           ;usb_device_cdc.c: 232: break;
  8203  0DC6  0008               	return
  8204  0DC7                     i1l4398:	
  8205  0DC7  0020               	movlb	0	; select bank0
  8206  0DC8  0851               	movf	81,w	;volatile
  8207                           
  8208                           ; Switch size 1, requested type "space"
  8209                           ; Number of cases is 5, Range of values is 0 to 34
  8210                           ; switch strategies available:
  8211                           ; Name         Instructions Cycles
  8212                           ; simple_byte           16     9 (average)
  8213                           ; direct_byte           76     6 (fixed)
  8214                           ; jumptable            260     6 (fixed)
  8215                           ;	Chosen strategy is simple_byte
  8216  0DC9  3A00               	xorlw	0	; case 0
  8217  0DCA  1903               	skipnz
  8218  0DCB  2D8D               	goto	i1l4368
  8219  0DCC  3A01               	xorlw	1	; case 1
  8220  0DCD  1903               	skipnz
  8221  0DCE  2D99               	goto	i1l4376
  8222  0DCF  3A21               	xorlw	33	; case 32
  8223  0DD0  1903               	skipnz
  8224  0DD1  2DA0               	goto	i1l4380
  8225  0DD2  3A01               	xorlw	1	; case 33
  8226  0DD3  1903               	skipnz
  8227  0DD4  2DB0               	goto	i1l4386
  8228  0DD5  3A03               	xorlw	3	; case 34
  8229  0DD6  1903               	skipnz
  8230  0DD7  2DBE               	goto	i1l4392
  8231  0DD8  2DD9               	goto	i1l46
  8232  0DD9                     i1l46:	
  8233  0DD9  0008               	return
  8234  0DDA                     __end_of_USBCheckCDCRequest:	
  8235                           
  8236                           	psect	text32
  8237  0B9B                     __ptext32:	
  8238 ;; *************** function _APP_LEDUpdateUSBStatus *****************
  8239 ;; Defined at:
  8240 ;;		line 75 in file "app_led_usb_status.c"
  8241 ;; Parameters:    Size  Location     Type
  8242 ;;		None
  8243 ;; Auto vars:     Size  Location     Type
  8244 ;;		None
  8245 ;; Return value:  Size  Location     Type
  8246 ;;                  2  564[None  ] int 
  8247 ;; Registers used:
  8248 ;;		wreg, fsr0l, fsr0h, status,2, status,0, pclath, cstack
  8249 ;; Tracked objects:
  8250 ;;		On entry : 0/0
  8251 ;;		On exit  : 0/0
  8252 ;;		Unchanged: 0/0
  8253 ;; Data sizes:     COMMON  BANK0h   BANK1   BANK2   BANK3   BANK4   BANK5   BANK6   BANK7   BANK8   BANK9  BANK10  BANK1
      +1  BANK12
  8254 ;;      Params:         0       0       0       0       0       0       0       0       0       0       0       0       
      +0       0
  8255 ;;      Locals:         0       0       0       0       0       0       0       0       0       0       0       0       
      +0       0
  8256 ;;      Temps:          0       0       0       0       0       0       0       0       0       0       0       0       
      +0       0
  8257 ;;      Totals:         0       0       0       0       0       0       0       0       0       0       0       0       
      +0       0
  8258 ;;Total ram usage:        0 bytes
  8259 ;; Hardware stack levels used:    1
  8260 ;; Hardware stack levels required when called:    1
  8261 ;; This function calls:
  8262 ;;		_LED_Off
  8263 ;;		_LED_On
  8264 ;; This function is called by:
  8265 ;;		_USER_USB_CALLBACK_EVENT_HANDLER
  8266 ;; This function uses a non-reentrant model
  8267 ;;
  8268                           
  8269                           
  8270                           ;psect for function _APP_LEDUpdateUSBStatus
  8271  0B9B                     _APP_LEDUpdateUSBStatus:	
  8272                           
  8273                           ;app_led_usb_status.c: 77: static uint16_t ledCount = 0;
  8274                           ;app_led_usb_status.c: 79: if(UCONbits.SUSPND == 1)
  8275                           
  8276                           ;incstack = 0
  8277                           ; Regs used in _APP_LEDUpdateUSBStatus: [wreg-fsr0h+status,2+status,0+pclath+cstack]
  8278  0B9B  003D               	movlb	29	; select bank29
  8279  0B9C  1C8E               	btfss	14,1	;volatile
  8280  0B9D  2BDB               	goto	i1l4432
  8281                           
  8282                           ;app_led_usb_status.c: 80: {
  8283                           ;app_led_usb_status.c: 81: LED_Off(4);
  8284  0B9E  3004               	movlw	4
  8285  0B9F  3188  203F         	fcall	_LED_Off
  8286                           
  8287                           ;app_led_usb_status.c: 82: return;
  8288  0BA1  0008               	return
  8289  0BA2                     i1l4406:	
  8290                           ;app_led_usb_status.c: 86: {
  8291                           ;app_led_usb_status.c: 87: case CONFIGURED_STATE:
  8292                           
  8293                           ;app_led_usb_status.c: 83: }
  8294                           ;app_led_usb_status.c: 85: switch(USBDeviceState)
  8295                           
  8296                           
  8297                           ;app_led_usb_status.c: 90: if(ledCount == 1)
  8298  0BA2  0023               	movlb	3	; select bank3
  8299  0BA3  033B               	decf	APP_LEDUpdateUSBStatus@ledCount^(0+384),w
  8300  0BA4  043C               	iorwf	(APP_LEDUpdateUSBStatus@ledCount+1)^(0+384),w
  8301  0BA5  1D03               	btfss	3,2
  8302  0BA6  2BAC               	goto	i1l4410
  8303                           
  8304                           ;app_led_usb_status.c: 91: {
  8305                           ;app_led_usb_status.c: 92: LED_On(4);
  8306  0BA7  3004               	movlw	4
  8307  0BA8  3188  203C  318B   	fcall	_LED_On
  8308                           
  8309                           ;app_led_usb_status.c: 93: }
  8310  0BAB  2BE1               	goto	i1l4434
  8311  0BAC                     i1l4410:	
  8312                           
  8313                           ;app_led_usb_status.c: 94: else if(ledCount == 75)
  8314  0BAC  304B               	movlw	75
  8315  0BAD  0023               	movlb	3	; select bank3
  8316  0BAE  063B               	xorwf	APP_LEDUpdateUSBStatus@ledCount^(0+384),w
  8317  0BAF  043C               	iorwf	(APP_LEDUpdateUSBStatus@ledCount+1)^(0+384),w
  8318  0BB0  1D03               	btfss	3,2
  8319  0BB1  2BB7               	goto	i1l4414
  8320                           
  8321                           ;app_led_usb_status.c: 95: {
  8322                           ;app_led_usb_status.c: 96: LED_Off(4);
  8323  0BB2  3004               	movlw	4
  8324  0BB3  3188  203F  318B   	fcall	_LED_Off
  8325                           
  8326                           ;app_led_usb_status.c: 97: }
  8327  0BB6  2BE1               	goto	i1l4434
  8328  0BB7                     i1l4414:	
  8329                           
  8330                           ;app_led_usb_status.c: 98: else if(ledCount > 150)
  8331  0BB7  3000               	movlw	0
  8332  0BB8  0023               	movlb	3	; select bank3
  8333  0BB9  023C               	subwf	(APP_LEDUpdateUSBStatus@ledCount+1)^(0+384),w
  8334  0BBA  3097               	movlw	151
  8335  0BBB  2BD4               	goto	L11
  8336  0BBC                     i1l4418:	
  8337                           ;app_led_usb_status.c: 104: default:
  8338                           
  8339                           ;app_led_usb_status.c: 101: }
  8340                           ;app_led_usb_status.c: 102: break;
  8341                           
  8342                           ;app_led_usb_status.c: 99: {
  8343                           ;app_led_usb_status.c: 100: ledCount = 0;
  8344                           
  8345                           
  8346                           ;app_led_usb_status.c: 107: if(ledCount == 1)
  8347  0BBC  033B               	decf	APP_LEDUpdateUSBStatus@ledCount^(0+384),w
  8348  0BBD  043C               	iorwf	(APP_LEDUpdateUSBStatus@ledCount+1)^(0+384),w
  8349  0BBE  1D03               	btfss	3,2
  8350  0BBF  2BC5               	goto	i1l4422
  8351                           
  8352                           ;app_led_usb_status.c: 108: {
  8353                           ;app_led_usb_status.c: 109: LED_On(4);
  8354  0BC0  3004               	movlw	4
  8355  0BC1  3188  203C  318B   	fcall	_LED_On
  8356                           
  8357                           ;app_led_usb_status.c: 110: }
  8358  0BC4  2BE1               	goto	i1l4434
  8359  0BC5                     i1l4422:	
  8360                           
  8361                           ;app_led_usb_status.c: 111: else if(ledCount == 50)
  8362  0BC5  3032               	movlw	50
  8363  0BC6  0023               	movlb	3	; select bank3
  8364  0BC7  063B               	xorwf	APP_LEDUpdateUSBStatus@ledCount^(0+384),w
  8365  0BC8  043C               	iorwf	(APP_LEDUpdateUSBStatus@ledCount+1)^(0+384),w
  8366  0BC9  1D03               	btfss	3,2
  8367  0BCA  2BD0               	goto	i1l4426
  8368                           
  8369                           ;app_led_usb_status.c: 112: {
  8370                           ;app_led_usb_status.c: 113: LED_Off(4);
  8371  0BCB  3004               	movlw	4
  8372  0BCC  3188  203F  318B   	fcall	_LED_Off
  8373                           
  8374                           ;app_led_usb_status.c: 114: }
  8375  0BCF  2BE1               	goto	i1l4434
  8376  0BD0                     i1l4426:	
  8377                           
  8378                           ;app_led_usb_status.c: 115: else if(ledCount > 950)
  8379  0BD0  3003               	movlw	3
  8380  0BD1  0023               	movlb	3	; select bank3
  8381  0BD2  023C               	subwf	(APP_LEDUpdateUSBStatus@ledCount+1)^(0+384),w
  8382  0BD3  30B7               	movlw	183
  8383  0BD4                     L11:	
  8384  0BD4  1903               	skipnz
  8385  0BD5  023B               	subwf	APP_LEDUpdateUSBStatus@ledCount^(0+384),w
  8386  0BD6  1C03               	skipc
  8387  0BD7  2BE1               	goto	i1l4434
  8388                           
  8389                           ;app_led_usb_status.c: 116: {
  8390                           ;app_led_usb_status.c: 117: ledCount = 0;
  8391  0BD8  01BB               	clrf	APP_LEDUpdateUSBStatus@ledCount^(0+384)
  8392  0BD9  01BC               	clrf	(APP_LEDUpdateUSBStatus@ledCount+1)^(0+384)
  8393                           
  8394                           ;app_led_usb_status.c: 120: }
  8395                           
  8396                           ;app_led_usb_status.c: 118: }
  8397                           ;app_led_usb_status.c: 119: break;
  8398  0BDA  2BE1               	goto	i1l4434
  8399  0BDB                     i1l4432:	
  8400  0BDB  0023               	movlb	3	; select bank3
  8401  0BDC  084C               	movf	_USBDeviceState^(0+384),w	;volatile
  8402                           
  8403                           ; Switch size 1, requested type "space"
  8404                           ; Number of cases is 1, Range of values is 32 to 32
  8405                           ; switch strategies available:
  8406                           ; Name         Instructions Cycles
  8407                           ; simple_byte            4     3 (average)
  8408                           ; direct_byte           11     9 (fixed)
  8409                           ; jumptable            263     9 (fixed)
  8410                           ;	Chosen strategy is simple_byte
  8411  0BDD  3A20               	xorlw	32	; case 32
  8412  0BDE  1903               	skipnz
  8413  0BDF  2BA2               	goto	i1l4406
  8414  0BE0  2BBC               	goto	i1l4418
  8415  0BE1                     i1l4434:	
  8416                           
  8417                           ;app_led_usb_status.c: 123: ledCount++;
  8418  0BE1  3001               	movlw	1
  8419  0BE2  0023               	movlb	3	; select bank3
  8420  0BE3  07BB               	addwf	APP_LEDUpdateUSBStatus@ledCount^(0+384),f
  8421  0BE4  3000               	movlw	0
  8422  0BE5  3DBC               	addwfc	(APP_LEDUpdateUSBStatus@ledCount+1)^(0+384),f
  8423  0BE6  0008               	return
  8424  0BE7                     __end_of_APP_LEDUpdateUSBStatus:	
  8425                           
  8426                           	psect	text33
  8427  083C                     __ptext33:	
  8428 ;; *************** function _LED_On *****************
  8429 ;; Defined at:
  8430 ;;		line 12 in file "led.c"
  8431 ;; Parameters:    Size  Location     Type
  8432 ;;  led             1    wreg     enum E1
  8433 ;; Auto vars:     Size  Location     Type
  8434 ;;  led             1    0[COMMON] enum E1
  8435 ;; Return value:  Size  Location     Type
  8436 ;;		None               void
  8437 ;; Registers used:
  8438 ;;		wreg
  8439 ;; Tracked objects:
  8440 ;;		On entry : 0/0
  8441 ;;		On exit  : 0/0
  8442 ;;		Unchanged: 0/0
  8443 ;; Data sizes:     COMMON  BANK0h   BANK1   BANK2   BANK3   BANK4   BANK5   BANK6   BANK7   BANK8   BANK9  BANK10  BANK1
      +1  BANK12
  8444 ;;      Params:         0       0       0       0       0       0       0       0       0       0       0       0       
      +0       0
  8445 ;;      Locals:         0       0       0       0       0       0       0       0       0       0       0       0       
      +0       0
  8446 ;;      Temps:          0       0       0       0       0       0       0       0       0       0       0       0       
      +0       0
  8447 ;;      Totals:         0       0       0       0       0       0       0       0       0       0       0       0       
      +0       0
  8448 ;;Total ram usage:        0 bytes
  8449 ;; Hardware stack levels used:    1
  8450 ;; This function calls:
  8451 ;;		Nothing
  8452 ;; This function is called by:
  8453 ;;		_APP_LEDUpdateUSBStatus
  8454 ;; This function uses a non-reentrant model
  8455 ;;
  8456                           
  8457                           
  8458                           ;psect for function _LED_On
  8459  083C                     _LED_On:	
  8460                           
  8461                           ;led.c: 14: LATA |= 0x10;
  8462                           
  8463                           ;incstack = 0
  8464                           ; Regs used in _LED_On: [wreg]
  8465  083C  0022               	movlb	2	; select bank2
  8466  083D  160C               	bsf	12,4	;volatile
  8467                           
  8468                           ;led.c: 15: return;
  8469  083E  0008               	return
  8470  083F                     __end_of_LED_On:	
  8471                           
  8472                           	psect	text34
  8473  083F                     __ptext34:	
  8474 ;; *************** function _LED_Off *****************
  8475 ;; Defined at:
  8476 ;;		line 6 in file "led.c"
  8477 ;; Parameters:    Size  Location     Type
  8478 ;;  led             1    wreg     enum E1
  8479 ;; Auto vars:     Size  Location     Type
  8480 ;;  led             1    0[COMMON] enum E1
  8481 ;; Return value:  Size  Location     Type
  8482 ;;		None               void
  8483 ;; Registers used:
  8484 ;;		wreg, status,2, status,0
  8485 ;; Tracked objects:
  8486 ;;		On entry : 0/0
  8487 ;;		On exit  : 0/0
  8488 ;;		Unchanged: 0/0
  8489 ;; Data sizes:     COMMON  BANK0h   BANK1   BANK2   BANK3   BANK4   BANK5   BANK6   BANK7   BANK8   BANK9  BANK10  BANK1
      +1  BANK12
  8490 ;;      Params:         0       0       0       0       0       0       0       0       0       0       0       0       
      +0       0
  8491 ;;      Locals:         0       0       0       0       0       0       0       0       0       0       0       0       
      +0       0
  8492 ;;      Temps:          1       0       0       0       0       0       0       0       0       0       0       0       
      +0       0
  8493 ;;      Totals:         1       0       0       0       0       0       0       0       0       0       0       0       
      +0       0
  8494 ;;Total ram usage:        1 bytes
  8495 ;; Hardware stack levels used:    1
  8496 ;; This function calls:
  8497 ;;		Nothing
  8498 ;; This function is called by:
  8499 ;;		_APP_LEDUpdateUSBStatus
  8500 ;; This function uses a non-reentrant model
  8501 ;;
  8502                           
  8503                           
  8504                           ;psect for function _LED_Off
  8505  083F                     _LED_Off:	
  8506                           
  8507                           ;led.c: 8: LATA &= ~0x10;
  8508                           
  8509                           ;incstack = 0
  8510                           ; Regs used in _LED_Off: [wreg+status,2+status,0]
  8511  083F  30EF               	movlw	239
  8512  0840  00F0               	movwf	??_LED_Off
  8513  0841  0870               	movf	??_LED_Off,w
  8514  0842  0022               	movlb	2	; select bank2
  8515  0843  058C               	andwf	12,f	;volatile
  8516  0844  0008               	return
  8517  0845                     __end_of_LED_Off:	
  8518                           ;led.c: 9: return;
  8519                           
  8520                           
  8521                           	psect	text35
  8522  0860                     __ptext35:	
  8523 ;; *************** function _APP_DeviceCDCBasicDemoInitialize *****************
  8524 ;; Defined at:
  8525 ;;		line 63 in file "app_device_cdc_basic.c"
  8526 ;; Parameters:    Size  Location     Type
  8527 ;;		None
  8528 ;; Auto vars:     Size  Location     Type
  8529 ;;		None
  8530 ;; Return value:  Size  Location     Type
  8531 ;;		None               void
  8532 ;; Registers used:
  8533 ;;		wreg, fsr1l, fsr1h, status,2, status,0, pclath, cstack
  8534 ;; Tracked objects:
  8535 ;;		On entry : 0/0
  8536 ;;		On exit  : 0/0
  8537 ;;		Unchanged: 0/0
  8538 ;; Data sizes:     COMMON  BANK0h   BANK1   BANK2   BANK3   BANK4   BANK5   BANK6   BANK7   BANK8   BANK9  BANK10  BANK1
      +1  BANK12
  8539 ;;      Params:         0       0       0       0       0       0       0       0       0       0       0       0       
      +0       0
  8540 ;;      Locals:         0       0       0       0       0       0       0       0       0       0       0       0       
      +0       0
  8541 ;;      Temps:          1       0       0       0       0       0       0       0       0       0       0       0       
      +0       0
  8542 ;;      Totals:         1       0       0       0       0       0       0       0       0       0       0       0       
      +0       0
  8543 ;;Total ram usage:        1 bytes
  8544 ;; Hardware stack levels used:    1
  8545 ;; Hardware stack levels required when called:    3
  8546 ;; This function calls:
  8547 ;;		_CDCInitEP
  8548 ;; This function is called by:
  8549 ;;		_USER_USB_CALLBACK_EVENT_HANDLER
  8550 ;; This function uses a non-reentrant model
  8551 ;;
  8552                           
  8553                           
  8554                           ;psect for function _APP_DeviceCDCBasicDemoInitialize
  8555  0860                     _APP_DeviceCDCBasicDemoInitialize:	
  8556                           
  8557                           ;app_device_cdc_basic.c: 65: CDCInitEP();
  8558                           
  8559                           ;incstack = 0
  8560                           ; Regs used in _APP_DeviceCDCBasicDemoInitialize: [wreg+fsr1l+fsr1h+status,2+status,0+pc
      +                          lath+cstack]
  8561  0860  318A  220A         	fcall	_CDCInitEP
  8562                           
  8563                           ;app_device_cdc_basic.c: 68: line_coding.bCharFormat = 0;
  8564  0862  0023               	movlb	3	; select bank3
  8565  0863  01E8               	clrf	(_line_coding^(0+384)+4)
  8566                           
  8567                           ;app_device_cdc_basic.c: 69: line_coding.bDataBits = 8;
  8568  0864  3008               	movlw	8
  8569  0865  00FD               	movwf	??_APP_DeviceCDCBasicDemoInitialize
  8570  0866  087D               	movf	??_APP_DeviceCDCBasicDemoInitialize,w
  8571  0867  00EA               	movwf	(_line_coding^(0+384)+6)
  8572                           
  8573                           ;app_device_cdc_basic.c: 70: line_coding.bParityType = 0;
  8574  0868  01E9               	clrf	(_line_coding^(0+384)+5)
  8575                           
  8576                           ;app_device_cdc_basic.c: 71: line_coding.dwDTERate = 9600;
  8577  0869  3000               	movlw	0
  8578  086A  00E7               	movwf	(_line_coding+3)^(0+384)
  8579  086B  3000               	movlw	0
  8580  086C  00E6               	movwf	(_line_coding+2)^(0+384)
  8581  086D  3025               	movlw	37
  8582  086E  00E5               	movwf	(_line_coding+1)^(0+384)
  8583  086F  3080               	movlw	128
  8584  0870  00E4               	movwf	_line_coding^(0+384)
  8585                           
  8586                           ;app_device_cdc_basic.c: 73: buttonPressed = 0;
  8587  0871  01D1               	clrf	_buttonPressed^(0+384)
  8588  0872  0008               	return
  8589  0873                     __end_of_APP_DeviceCDCBasicDemoInitialize:	
  8590                           
  8591                           	psect	text36
  8592  0A0A                     __ptext36:	
  8593 ;; *************** function _CDCInitEP *****************
  8594 ;; Defined at:
  8595 ;;		line 294 in file "/opt/microchip/mla/framework/usb/src/usb_device_cdc.c"
  8596 ;; Parameters:    Size  Location     Type
  8597 ;;		None
  8598 ;; Auto vars:     Size  Location     Type
  8599 ;;		None
  8600 ;; Return value:  Size  Location     Type
  8601 ;;		None               void
  8602 ;; Registers used:
  8603 ;;		wreg, fsr1l, fsr1h, status,2, status,0, pclath, cstack
  8604 ;; Tracked objects:
  8605 ;;		On entry : 0/0
  8606 ;;		On exit  : 0/0
  8607 ;;		Unchanged: 0/0
  8608 ;; Data sizes:     COMMON  BANK0h   BANK1   BANK2   BANK3   BANK4   BANK5   BANK6   BANK7   BANK8   BANK9  BANK10  BANK1
      +1  BANK12
  8609 ;;      Params:         0       0       0       0       0       0       0       0       0       0       0       0       
      +0       0
  8610 ;;      Locals:         0       0       0       0       0       0       0       0       0       0       0       0       
      +0       0
  8611 ;;      Temps:          0       2       0       0       0       0       0       0       0       0       0       0       
      +0       0
  8612 ;;      Totals:         0       2       0       0       0       0       0       0       0       0       0       0       
      +0       0
  8613 ;;Total ram usage:        2 bytes
  8614 ;; Hardware stack levels used:    1
  8615 ;; Hardware stack levels required when called:    2
  8616 ;; This function calls:
  8617 ;;		_USBEnableEndpoint
  8618 ;;		i1_USBTransferOnePacket
  8619 ;; This function is called by:
  8620 ;;		_APP_DeviceCDCBasicDemoInitialize
  8621 ;; This function uses a non-reentrant model
  8622 ;;
  8623                           
  8624                           
  8625                           ;psect for function _CDCInitEP
  8626  0A0A                     _CDCInitEP:	
  8627                           
  8628                           ;usb_device_cdc.c: 297: line_coding.dwDTERate = 19200;
  8629                           
  8630                           ;incstack = 0
  8631                           ; Regs used in _CDCInitEP: [wreg+fsr1l+fsr1h+status,2+status,0+pclath+cstack]
  8632  0A0A  3000               	movlw	0
  8633  0A0B  0023               	movlb	3	; select bank3
  8634  0A0C  00E7               	movwf	(_line_coding+3)^(0+384)
  8635  0A0D  3000               	movlw	0
  8636  0A0E  00E6               	movwf	(_line_coding+2)^(0+384)
  8637  0A0F  304B               	movlw	75
  8638  0A10  00E5               	movwf	(_line_coding+1)^(0+384)
  8639  0A11  3000               	movlw	0
  8640  0A12  00E4               	movwf	_line_coding^(0+384)
  8641                           
  8642                           ;usb_device_cdc.c: 298: line_coding.bCharFormat = 0x00;
  8643  0A13  01E8               	clrf	(_line_coding^(0+384)+4)
  8644                           
  8645                           ;usb_device_cdc.c: 299: line_coding.bParityType = 0x00;
  8646  0A14  01E9               	clrf	(_line_coding^(0+384)+5)
  8647                           
  8648                           ;usb_device_cdc.c: 300: line_coding.bDataBits = 0x08;
  8649  0A15  3008               	movlw	8
  8650  0A16  0020               	movlb	0	; select bank0
  8651  0A17  00E0               	movwf	??_CDCInitEP
  8652  0A18  0860               	movf	??_CDCInitEP,w
  8653  0A19  0023               	movlb	3	; select bank3
  8654  0A1A  00EA               	movwf	(_line_coding^(0+384)+6)
  8655                           
  8656                           ;usb_device_cdc.c: 302: cdc_rx_len = 0;
  8657  0A1B  01D3               	clrf	_cdc_rx_len^(0+384)
  8658                           
  8659                           ;usb_device_cdc.c: 315: USBEnableEndpoint(1,0x02|0x10|0x08);
  8660  0A1C  301A               	movlw	26
  8661  0A1D  0020               	movlb	0	; select bank0
  8662  0A1E  00E0               	movwf	??_CDCInitEP
  8663  0A1F  0860               	movf	??_CDCInitEP,w
  8664  0A20  00F7               	movwf	USBEnableEndpoint@options
  8665  0A21  3001               	movlw	1
  8666  0A22  3189  2145  318A   	fcall	_USBEnableEndpoint
  8667                           
  8668                           ;usb_device_cdc.c: 316: USBEnableEndpoint(2,0x02|0x04|0x10|0x08);
  8669  0A25  301E               	movlw	30
  8670  0A26  0020               	movlb	0	; select bank0
  8671  0A27  00E0               	movwf	??_CDCInitEP
  8672  0A28  0860               	movf	??_CDCInitEP,w
  8673  0A29  00F7               	movwf	USBEnableEndpoint@options
  8674  0A2A  3002               	movlw	2
  8675  0A2B  3189  2145  318A   	fcall	_USBEnableEndpoint
  8676                           
  8677                           ;usb_device_cdc.c: 318: CDCDataOutHandle = USBTransferOnePacket(2,0,(uint8_t*)&cdc_data_
      +                          rx,sizeof(cdc_data_rx));
  8678  0A2E  01F0               	clrf	i1USBTransferOnePacket@dir
  8679  0A2F  3020               	movlw	32
  8680  0A30  00F1               	movwf	i1USBTransferOnePacket@data
  8681  0A31  3001               	movlw	1
  8682  0A32  00F2               	movwf	i1USBTransferOnePacket@data+1
  8683  0A33  3040               	movlw	64
  8684  0A34  0020               	movlb	0	; select bank0
  8685  0A35  00E0               	movwf	??_CDCInitEP
  8686  0A36  0860               	movf	??_CDCInitEP,w
  8687  0A37  00F3               	movwf	i1USBTransferOnePacket@len
  8688  0A38  3002               	movlw	2
  8689  0A39  318B  234F         	fcall	i1_USBTransferOnePacket
  8690  0A3B  0020               	movlb	0	; select bank0
  8691  0A3C  00E1               	movwf	??_CDCInitEP+1
  8692  0A3D  0861               	movf	??_CDCInitEP+1,w
  8693  0A3E  0023               	movlb	3	; select bank3
  8694  0A3F  00C6               	movwf	_CDCDataOutHandle^(0+384)
  8695                           
  8696                           ;usb_device_cdc.c: 319: CDCDataInHandle = (0);
  8697  0A40  01C5               	clrf	_CDCDataInHandle^(0+384)
  8698                           
  8699                           ;usb_device_cdc.c: 346: cdc_trf_state = 0;
  8700  0A41  01D4               	clrf	_cdc_trf_state^(0+384)
  8701  0A42  0008               	return
  8702  0A43                     __end_of_CDCInitEP:	
  8703                           
  8704                           	psect	text37
  8705  0B4F                     __ptext37:	
  8706 ;; *************** function i1_USBTransferOnePacket *****************
  8707 ;; Defined at:
  8708 ;;		line 1013 in file "/opt/microchip/mla/framework/usb/src/usb_device.c"
  8709 ;; Parameters:    Size  Location     Type
  8710 ;;  ep              1    wreg     unsigned char 
  8711 ;;  dir             1    0[COMMON] unsigned char 
  8712 ;;  data            2    1[COMMON] PTR unsigned char 
  8713 ;;		 -> cdc_data_tx(64), NULL(0), cdc_data_rx(64), 
  8714 ;;  len             1    3[COMMON] unsigned char 
  8715 ;; Auto vars:     Size  Location     Type
  8716 ;;  ep              1    6[COMMON] unsigned char 
  8717 ;;  USBTransferO    1    7[COMMON] PTR volatile struct __BD
  8718 ;;		 -> BDT(48), NULL(0), 
  8719 ;; Return value:  Size  Location     Type
  8720 ;;                  1    wreg      PTR void 
  8721 ;; Registers used:
  8722 ;;		wreg, fsr1l, fsr1h, status,2, status,0
  8723 ;; Tracked objects:
  8724 ;;		On entry : 0/0
  8725 ;;		On exit  : 0/0
  8726 ;;		Unchanged: 0/0
  8727 ;; Data sizes:     COMMON  BANK0h   BANK1   BANK2   BANK3   BANK4   BANK5   BANK6   BANK7   BANK8   BANK9  BANK10  BANK1
      +1  BANK12
  8728 ;;      Params:         4       0       0       0       0       0       0       0       0       0       0       0       
      +0       0
  8729 ;;      Locals:         2       0       0       0       0       0       0       0       0       0       0       0       
      +0       0
  8730 ;;      Temps:          2       0       0       0       0       0       0       0       0       0       0       0       
      +0       0
  8731 ;;      Totals:         8       0       0       0       0       0       0       0       0       0       0       0       
      +0       0
  8732 ;;Total ram usage:        8 bytes
  8733 ;; Hardware stack levels used:    1
  8734 ;; This function calls:
  8735 ;;		Nothing
  8736 ;; This function is called by:
  8737 ;;		_CDCInitEP
  8738 ;; This function uses a non-reentrant model
  8739 ;;
  8740                           
  8741                           
  8742                           ;psect for function i1_USBTransferOnePacket
  8743  0B4F                     i1_USBTransferOnePacket:	
  8744                           
  8745                           ;incstack = 0
  8746                           ; Regs used in i1_USBTransferOnePacket: [wreg+fsr1l+fsr1h+status,2+status,0]
  8747                           ;i1USBTransferOnePacket@ep stored from wreg
  8748  0B4F  00F6               	movwf	i1USBTransferOnePacket@ep
  8749                           
  8750                           ;usb_device.c: 1015: volatile BDT_ENTRY* handle;
  8751                           ;usb_device.c: 1018: if(dir != 0)
  8752  0B50  0870               	movf	i1USBTransferOnePacket@dir,w
  8753  0B51  1903               	btfsc	3,2
  8754  0B52  2B56               	goto	i1l4306
  8755                           
  8756                           ;usb_device.c: 1019: {
  8757                           ;usb_device.c: 1021: handle = pBDTEntryIn[ep];
  8758  0B53  0876               	movf	i1USBTransferOnePacket@ep,w
  8759  0B54  3EB5               	addlw	(low (_pBDTEntryIn| (0+256)))& (0+255)
  8760  0B55  2B58               	goto	L12
  8761  0B56                     i1l4306:	
  8762                           ;usb_device.c: 1022: }
  8763                           
  8764                           
  8765                           ;usb_device.c: 1023: else
  8766                           ;usb_device.c: 1024: {
  8767                           ;usb_device.c: 1026: handle = pBDTEntryOut[ep];
  8768  0B56  0876               	movf	i1USBTransferOnePacket@ep,w
  8769  0B57  3EB8               	addlw	(low (_pBDTEntryOut| (0+256)))& (0+255)
  8770  0B58                     L12:	
  8771  0B58  0086               	movwf	6
  8772  0B59  3001               	movlw	1	; select bank3/4
  8773  0B5A  0087               	movwf	7
  8774  0B5B  0801               	movf	1,w
  8775  0B5C  00F4               	movwf	??i1_USBTransferOnePacket
  8776  0B5D  0874               	movf	??i1_USBTransferOnePacket,w
  8777  0B5E  00F7               	movwf	i1USBTransferOnePacket@handle
  8778                           
  8779                           ;usb_device.c: 1027: }
  8780                           ;usb_device.c: 1031: if(handle == 0)
  8781  0B5F  0877               	movf	i1USBTransferOnePacket@handle,w
  8782  0B60  1D03               	btfss	3,2
  8783  0B61  2B64               	goto	i1l4314
  8784                           
  8785                           ;usb_device.c: 1032: {
  8786                           ;usb_device.c: 1033: return 0;
  8787  0B62  3000               	movlw	0
  8788  0B63  0008               	return
  8789  0B64                     i1l4314:	
  8790                           
  8791                           ;usb_device.c: 1034: }
  8792                           ;usb_device.c: 1047: handle->ADR = (((uint16_t)(data)) & 0x7FFF);
  8793  0B64  30FF               	movlw	255
  8794  0B65  0571               	andwf	i1USBTransferOnePacket@data,w
  8795  0B66  00F4               	movwf	??i1_USBTransferOnePacket
  8796  0B67  307F               	movlw	127
  8797  0B68  0572               	andwf	i1USBTransferOnePacket@data+1,w
  8798  0B69  00F5               	movwf	??i1_USBTransferOnePacket+1
  8799  0B6A  0877               	movf	i1USBTransferOnePacket@handle,w
  8800  0B6B  3E02               	addlw	2
  8801  0B6C  0086               	movwf	6
  8802  0B6D  0187               	clrf	7
  8803  0B6E  0874               	movf	??i1_USBTransferOnePacket,w
  8804  0B6F  3FC0               	movwi [0]fsr1
  8805  0B70  0875               	movf	??i1_USBTransferOnePacket+1,w
  8806  0B71  3FC1               	movwi [1]fsr1
  8807                           
  8808                           ;usb_device.c: 1048: handle->CNT = len;
  8809  0B72  0873               	movf	i1USBTransferOnePacket@len,w
  8810  0B73  00F4               	movwf	??i1_USBTransferOnePacket
  8811  0B74  0A77               	incf	i1USBTransferOnePacket@handle,w
  8812  0B75  0086               	movwf	6
  8813  0B76  0187               	clrf	7
  8814  0B77  0874               	movf	??i1_USBTransferOnePacket,w
  8815  0B78  0081               	movwf	1
  8816                           
  8817                           ;usb_device.c: 1049: handle->STAT.Val &= 0x40;
  8818  0B79  3040               	movlw	64
  8819  0B7A  00F4               	movwf	??i1_USBTransferOnePacket
  8820  0B7B  0877               	movf	i1USBTransferOnePacket@handle,w
  8821  0B7C  0086               	movwf	6
  8822  0B7D  0187               	clrf	7
  8823  0B7E  0874               	movf	??i1_USBTransferOnePacket,w
  8824  0B7F  0581               	andwf	1,f
  8825                           
  8826                           ;usb_device.c: 1050: handle->STAT.Val |= (0x08 & 0x08);
  8827  0B80  0877               	movf	i1USBTransferOnePacket@handle,w
  8828  0B81  0086               	movwf	6
  8829  0B82  0187               	clrf	7
  8830  0B83  1581               	bsf	1,3
  8831                           
  8832                           ;usb_device.c: 1051: handle->STAT.Val |= 0x80;
  8833  0B84  0877               	movf	i1USBTransferOnePacket@handle,w
  8834  0B85  0086               	movwf	6
  8835  0B86  0187               	clrf	7
  8836  0B87  1781               	bsf	1,7
  8837                           
  8838                           ;usb_device.c: 1054: if(dir != 0)
  8839  0B88  0870               	movf	i1USBTransferOnePacket@dir,w
  8840  0B89  1903               	btfsc	3,2
  8841  0B8A  2B90               	goto	i1l4324
  8842                           
  8843                           ;usb_device.c: 1055: {
  8844                           ;usb_device.c: 1057: {((uint8_t_VAL*)&pBDTEntryIn[ep])->Val ^= 0x0004;};
  8845  0B8B  3004               	movlw	4
  8846  0B8C  00F4               	movwf	??i1_USBTransferOnePacket
  8847  0B8D  0876               	movf	i1USBTransferOnePacket@ep,w
  8848  0B8E  3EB5               	addlw	(low (_pBDTEntryIn| (0+256)))& (0+255)
  8849  0B8F  2B94               	goto	L13
  8850  0B90                     i1l4324:	
  8851                           ;usb_device.c: 1058: }
  8852                           
  8853                           
  8854                           ;usb_device.c: 1059: else
  8855                           ;usb_device.c: 1060: {
  8856                           ;usb_device.c: 1062: {((uint8_t_VAL*)&pBDTEntryOut[ep])->Val ^= 0x0004;};
  8857  0B90  3004               	movlw	4
  8858  0B91  00F4               	movwf	??i1_USBTransferOnePacket
  8859  0B92  0876               	movf	i1USBTransferOnePacket@ep,w
  8860  0B93  3EB8               	addlw	(low (_pBDTEntryOut| (0+256)))& (0+255)
  8861  0B94                     L13:	
  8862  0B94  0086               	movwf	6
  8863  0B95  3001               	movlw	1	; select bank3/4
  8864  0B96  0087               	movwf	7
  8865  0B97  0874               	movf	??i1_USBTransferOnePacket,w
  8866  0B98  0681               	xorwf	1,f
  8867                           
  8868                           ;usb_device.c: 1063: }
  8869                           ;usb_device.c: 1064: return (void*)handle;
  8870  0B99  0877               	movf	i1USBTransferOnePacket@handle,w
  8871  0B9A  0008               	return
  8872  0B9B                     __end_ofi1_USBTransferOnePacket:	
  8873                           
  8874                           	psect	text38
  8875  0945                     __ptext38:	
  8876 ;; *************** function _USBEnableEndpoint *****************
  8877 ;; Defined at:
  8878 ;;		line 896 in file "/opt/microchip/mla/framework/usb/src/usb_device.c"
  8879 ;; Parameters:    Size  Location     Type
  8880 ;;  ep              1    wreg     unsigned char 
  8881 ;;  options         1    7[COMMON] unsigned char 
  8882 ;; Auto vars:     Size  Location     Type
  8883 ;;  ep              1   12[COMMON] unsigned char 
  8884 ;;  p               2   10[COMMON] PTR unsigned char 
  8885 ;;		 -> UEP0(1), 
  8886 ;; Return value:  Size  Location     Type
  8887 ;;		None               void
  8888 ;; Registers used:
  8889 ;;		wreg, fsr1l, fsr1h, status,2, status,0, pclath, cstack
  8890 ;; Tracked objects:
  8891 ;;		On entry : 0/0
  8892 ;;		On exit  : 0/0
  8893 ;;		Unchanged: 0/0
  8894 ;; Data sizes:     COMMON  BANK0h   BANK1   BANK2   BANK3   BANK4   BANK5   BANK6   BANK7   BANK8   BANK9  BANK10  BANK1
      +1  BANK12
  8895 ;;      Params:         1       0       0       0       0       0       0       0       0       0       0       0       
      +0       0
  8896 ;;      Locals:         3       0       0       0       0       0       0       0       0       0       0       0       
      +0       0
  8897 ;;      Temps:          2       0       0       0       0       0       0       0       0       0       0       0       
      +0       0
  8898 ;;      Totals:         6       0       0       0       0       0       0       0       0       0       0       0       
      +0       0
  8899 ;;Total ram usage:        6 bytes
  8900 ;; Hardware stack levels used:    1
  8901 ;; Hardware stack levels required when called:    1
  8902 ;; This function calls:
  8903 ;;		_USBConfigureEndpoint
  8904 ;; This function is called by:
  8905 ;;		_CDCInitEP
  8906 ;; This function uses a non-reentrant model
  8907 ;;
  8908                           
  8909                           
  8910                           ;psect for function _USBEnableEndpoint
  8911  0945                     _USBEnableEndpoint:	
  8912                           
  8913                           ;incstack = 0
  8914                           ; Regs used in _USBEnableEndpoint: [wreg+fsr1l+fsr1h+status,2+status,0+pclath+cstack]
  8915                           ;USBEnableEndpoint@ep stored from wreg
  8916  0945  00FC               	movwf	USBEnableEndpoint@ep
  8917                           
  8918                           ;usb_device.c: 898: unsigned char* p;
  8919                           ;usb_device.c: 902: if(options & 0x04)
  8920  0946  1D77               	btfss	USBEnableEndpoint@options,2
  8921  0947  294D               	goto	i1l4294
  8922                           
  8923                           ;usb_device.c: 903: {
  8924                           ;usb_device.c: 904: USBConfigureEndpoint(ep, 0);
  8925  0948  01F0               	clrf	USBConfigureEndpoint@direction
  8926  0949  087C               	movf	USBEnableEndpoint@ep,w
  8927  094A  318A  2243  3189   	fcall	_USBConfigureEndpoint
  8928  094D                     i1l4294:	
  8929                           
  8930                           ;usb_device.c: 905: }
  8931                           ;usb_device.c: 906: if(options & 0x02)
  8932  094D  1CF7               	btfss	USBEnableEndpoint@options,1
  8933  094E  2954               	goto	i1l4298
  8934                           
  8935                           ;usb_device.c: 907: {
  8936                           ;usb_device.c: 908: USBConfigureEndpoint(ep, 1);
  8937  094F  01F0               	clrf	USBConfigureEndpoint@direction
  8938  0950  0AF0               	incf	USBConfigureEndpoint@direction,f
  8939  0951  087C               	movf	USBEnableEndpoint@ep,w
  8940  0952  318A  2243         	fcall	_USBConfigureEndpoint
  8941  0954                     i1l4298:	
  8942                           
  8943                           ;usb_device.c: 909: }
  8944                           ;usb_device.c: 917: p = (unsigned char*)(&UEP0+ep);
  8945  0954  087C               	movf	USBEnableEndpoint@ep,w
  8946  0955  3E98               	addlw	152
  8947  0956  00F8               	movwf	??_USBEnableEndpoint
  8948  0957  01F9               	clrf	??_USBEnableEndpoint+1
  8949  0958  300E               	movlw	14
  8950  0959  3DF9               	addwfc	??_USBEnableEndpoint+1,f
  8951  095A  0878               	movf	??_USBEnableEndpoint,w
  8952  095B  00FA               	movwf	USBEnableEndpoint@p
  8953  095C  0879               	movf	??_USBEnableEndpoint+1,w
  8954  095D  00FB               	movwf	USBEnableEndpoint@p+1
  8955                           
  8956                           ;usb_device.c: 919: *p = options;
  8957  095E  087A               	movf	USBEnableEndpoint@p,w
  8958  095F  0086               	movwf	6
  8959  0960  087B               	movf	USBEnableEndpoint@p+1,w
  8960  0961  0087               	movwf	7
  8961  0962  0877               	movf	USBEnableEndpoint@options,w
  8962  0963  0081               	movwf	1
  8963  0964  0008               	return
  8964  0965                     __end_of_USBEnableEndpoint:	
  8965                           
  8966                           	psect	text39
  8967  0A43                     __ptext39:	
  8968 ;; *************** function _USBConfigureEndpoint *****************
  8969 ;; Defined at:
  8970 ;;		line 1561 in file "/opt/microchip/mla/framework/usb/src/usb_device.c"
  8971 ;; Parameters:    Size  Location     Type
  8972 ;;  EPNum           1    wreg     unsigned char 
  8973 ;;  direction       1    0[COMMON] unsigned char 
  8974 ;; Auto vars:     Size  Location     Type
  8975 ;;  EPNum           1    5[COMMON] unsigned char 
  8976 ;;  handle          1    6[COMMON] PTR volatile struct __BD
  8977 ;;		 -> BDT(48), 
  8978 ;; Return value:  Size  Location     Type
  8979 ;;		None               void
  8980 ;; Registers used:
  8981 ;;		wreg, fsr1l, fsr1h, status,2, status,0
  8982 ;; Tracked objects:
  8983 ;;		On entry : 0/0
  8984 ;;		On exit  : 0/0
  8985 ;;		Unchanged: 0/0
  8986 ;; Data sizes:     COMMON  BANK0h   BANK1   BANK2   BANK3   BANK4   BANK5   BANK6   BANK7   BANK8   BANK9  BANK10  BANK1
      +1  BANK12
  8987 ;;      Params:         1       0       0       0       0       0       0       0       0       0       0       0       
      +0       0
  8988 ;;      Locals:         2       0       0       0       0       0       0       0       0       0       0       0       
      +0       0
  8989 ;;      Temps:          4       0       0       0       0       0       0       0       0       0       0       0       
      +0       0
  8990 ;;      Totals:         7       0       0       0       0       0       0       0       0       0       0       0       
      +0       0
  8991 ;;Total ram usage:        7 bytes
  8992 ;; Hardware stack levels used:    1
  8993 ;; This function calls:
  8994 ;;		Nothing
  8995 ;; This function is called by:
  8996 ;;		_USBEnableEndpoint
  8997 ;; This function uses a non-reentrant model
  8998 ;;
  8999                           
  9000                           
  9001                           ;psect for function _USBConfigureEndpoint
  9002  0A43                     _USBConfigureEndpoint:	
  9003                           
  9004                           ;incstack = 0
  9005                           ; Regs used in _USBConfigureEndpoint: [wreg+fsr1l+fsr1h+status,2+status,0]
  9006                           ;USBConfigureEndpoint@EPNum stored from wreg
  9007  0A43  00F5               	movwf	USBConfigureEndpoint@EPNum
  9008                           
  9009                           ;usb_device.c: 1563: volatile BDT_ENTRY* handle;
  9010                           ;usb_device.c: 1567: handle = (volatile BDT_ENTRY*)&BDT[0];
  9011  0A44  3020               	movlw	32
  9012  0A45  00F1               	movwf	??_USBConfigureEndpoint
  9013  0A46  0871               	movf	??_USBConfigureEndpoint,w
  9014  0A47  00F6               	movwf	USBConfigureEndpoint@handle
  9015                           
  9016                           ;usb_device.c: 1568: handle += (4*EPNum+2*direction+0u);
  9017  0A48  0870               	movf	USBConfigureEndpoint@direction,w
  9018  0A49  00F1               	movwf	??_USBConfigureEndpoint
  9019  0A4A  3001               	movlw	1
  9020  0A4B                     u415_25:	
  9021  0A4B  35F1               	lslf	??_USBConfigureEndpoint,f
  9022  0A4C  0B89               	decfsz	9,f
  9023  0A4D  2A4B               	goto	u415_25
  9024  0A4E  0875               	movf	USBConfigureEndpoint@EPNum,w
  9025  0A4F  00F2               	movwf	??_USBConfigureEndpoint+1
  9026  0A50  3001               	movlw	1
  9027  0A51                     u416_25:	
  9028  0A51  35F2               	lslf	??_USBConfigureEndpoint+1,f
  9029  0A52  3EFF               	addlw	-1
  9030  0A53  1D03               	skipz
  9031  0A54  2A51               	goto	u416_25
  9032  0A55  3572               	lslf	??_USBConfigureEndpoint+1,w
  9033  0A56  0771               	addwf	??_USBConfigureEndpoint,w
  9034  0A57  00F3               	movwf	??_USBConfigureEndpoint+2
  9035  0A58  3001               	movlw	1
  9036  0A59                     u417_25:	
  9037  0A59  35F3               	lslf	??_USBConfigureEndpoint+2,f
  9038  0A5A  3EFF               	addlw	-1
  9039  0A5B  1D03               	skipz
  9040  0A5C  2A59               	goto	u417_25
  9041  0A5D  3573               	lslf	??_USBConfigureEndpoint+2,w
  9042  0A5E  00F4               	movwf	??_USBConfigureEndpoint+3
  9043  0A5F  0874               	movf	??_USBConfigureEndpoint+3,w
  9044  0A60  07F6               	addwf	USBConfigureEndpoint@handle,f
  9045                           
  9046                           ;usb_device.c: 1570: handle->STAT.UOWN = 0;
  9047  0A61  0876               	movf	USBConfigureEndpoint@handle,w
  9048  0A62  0086               	movwf	6
  9049  0A63  0187               	clrf	7
  9050  0A64  1381               	bcf	1,7
  9051                           
  9052                           ;usb_device.c: 1575: if(direction == 0)
  9053  0A65  0870               	movf	USBConfigureEndpoint@direction,w
  9054  0A66  1D03               	btfss	3,2
  9055  0A67  2A6D               	goto	i1l4284
  9056                           
  9057                           ;usb_device.c: 1576: {
  9058                           ;usb_device.c: 1577: pBDTEntryOut[EPNum] = handle;
  9059  0A68  0876               	movf	USBConfigureEndpoint@handle,w
  9060  0A69  00F1               	movwf	??_USBConfigureEndpoint
  9061  0A6A  0875               	movf	USBConfigureEndpoint@EPNum,w
  9062  0A6B  3EB8               	addlw	(low (_pBDTEntryOut| (0+256)))& (0+255)
  9063  0A6C  2A71               	goto	L14
  9064  0A6D                     i1l4284:	
  9065                           ;usb_device.c: 1578: }
  9066                           
  9067                           
  9068                           ;usb_device.c: 1579: else
  9069                           ;usb_device.c: 1580: {
  9070                           ;usb_device.c: 1581: pBDTEntryIn[EPNum] = handle;
  9071  0A6D  0876               	movf	USBConfigureEndpoint@handle,w
  9072  0A6E  00F1               	movwf	??_USBConfigureEndpoint
  9073  0A6F  0875               	movf	USBConfigureEndpoint@EPNum,w
  9074  0A70  3EB5               	addlw	(low (_pBDTEntryIn| (0+256)))& (0+255)
  9075  0A71                     L14:	
  9076  0A71  0086               	movwf	6
  9077  0A72  3001               	movlw	1	; select bank3/4
  9078  0A73  0087               	movwf	7
  9079  0A74  0871               	movf	??_USBConfigureEndpoint,w
  9080  0A75  0081               	movwf	1
  9081                           
  9082                           ;usb_device.c: 1582: }
  9083                           ;usb_device.c: 1585: handle->STAT.DTS = 0;
  9084  0A76  0876               	movf	USBConfigureEndpoint@handle,w
  9085  0A77  0086               	movwf	6
  9086  0A78  0187               	clrf	7
  9087  0A79  1301               	bcf	1,6
  9088                           
  9089                           ;usb_device.c: 1586: (handle+1)->STAT.DTS = 1;
  9090  0A7A  0876               	movf	USBConfigureEndpoint@handle,w
  9091  0A7B  3E04               	addlw	4
  9092  0A7C  0086               	movwf	6
  9093  0A7D  0187               	clrf	7
  9094  0A7E  1701               	bsf	1,6
  9095  0A7F  0008               	return
  9096  0A80                     __end_of_USBConfigureEndpoint:	
  9097                           
  9098                           	psect	text40
  9099  09A9                     __ptext40:	
  9100 ;; *************** function _USBCtrlTrfOutHandler *****************
  9101 ;; Defined at:
  9102 ;;		line 2555 in file "/opt/microchip/mla/framework/usb/src/usb_device.c"
  9103 ;; Parameters:    Size  Location     Type
  9104 ;;		None
  9105 ;; Auto vars:     Size  Location     Type
  9106 ;;		None
  9107 ;; Return value:  Size  Location     Type
  9108 ;;		None               void
  9109 ;; Registers used:
  9110 ;;		wreg, fsr1l, fsr1h, status,2, status,0, pclath, cstack
  9111 ;; Tracked objects:
  9112 ;;		On entry : 0/0
  9113 ;;		On exit  : 0/0
  9114 ;;		Unchanged: 0/0
  9115 ;; Data sizes:     COMMON  BANK0h   BANK1   BANK2   BANK3   BANK4   BANK5   BANK6   BANK7   BANK8   BANK9  BANK10  BANK1
      +1  BANK12
  9116 ;;      Params:         0       0       0       0       0       0       0       0       0       0       0       0       
      +0       0
  9117 ;;      Locals:         0       0       0       0       0       0       0       0       0       0       0       0       
      +0       0
  9118 ;;      Temps:          2       0       0       0       0       0       0       0       0       0       0       0       
      +0       0
  9119 ;;      Totals:         2       0       0       0       0       0       0       0       0       0       0       0       
      +0       0
  9120 ;;Total ram usage:        2 bytes
  9121 ;; Hardware stack levels used:    1
  9122 ;; Hardware stack levels required when called:    2
  9123 ;; This function calls:
  9124 ;;		_USBCtrlTrfRxService
  9125 ;; This function is called by:
  9126 ;;		_USBCtrlEPService
  9127 ;; This function uses a non-reentrant model
  9128 ;;
  9129                           
  9130                           
  9131                           ;psect for function _USBCtrlTrfOutHandler
  9132  09A9                     _USBCtrlTrfOutHandler:	
  9133                           
  9134                           ;usb_device.c: 2557: if(controlTransferState == 2)
  9135                           
  9136                           ;incstack = 0
  9137                           ; Regs used in _USBCtrlTrfOutHandler: [wreg+fsr1l+fsr1h+status,2+status,0+pclath+cstack]
  9138  09A9  3002               	movlw	2
  9139  09AA  0023               	movlb	3	; select bank3
  9140  09AB  0656               	xorwf	_controlTransferState^(0+384),w	;volatile
  9141  09AC  1D03               	btfss	3,2
  9142  09AD  29B1               	goto	i1l4978
  9143                           
  9144                           ;usb_device.c: 2558: {
  9145                           ;usb_device.c: 2559: USBCtrlTrfRxService();
  9146  09AE  3185  25F1         	fcall	_USBCtrlTrfRxService
  9147                           
  9148                           ;usb_device.c: 2560: }
  9149  09B0  0008               	return
  9150  09B1                     i1l4978:	
  9151                           
  9152                           ;usb_device.c: 2561: else
  9153                           ;usb_device.c: 2562: {
  9154                           ;usb_device.c: 2565: controlTransferState = 0;
  9155  09B1  0023               	movlb	3	; select bank3
  9156  09B2  01D6               	clrf	_controlTransferState^(0+384)	;volatile
  9157                           
  9158                           ;usb_device.c: 2572: if(BothEP0OutUOWNsSet == 0)
  9159  09B3  0844               	movf	_BothEP0OutUOWNsSet^(0+384),w	;volatile
  9160  09B4  1D03               	btfss	3,2
  9161  09B5  29D6               	goto	i1l4990
  9162                           
  9163                           ;usb_device.c: 2573: {
  9164                           ;usb_device.c: 2574: pBDTEntryEP0OutNext->CNT = 8;
  9165  09B6  3008               	movlw	8
  9166  09B7  00F6               	movwf	??_USBCtrlTrfOutHandler
  9167  09B8  0021               	movlb	1	; select bank1
  9168  09B9  0A6C               	incf	_pBDTEntryEP0OutNext^(0+128),w
  9169  09BA  0086               	movwf	6
  9170  09BB  0187               	clrf	7
  9171  09BC  0876               	movf	??_USBCtrlTrfOutHandler,w
  9172  09BD  0081               	movwf	1
  9173                           
  9174                           ;usb_device.c: 2575: pBDTEntryEP0OutNext->ADR = (((uint16_t)(&SetupPkt)) & 0x7FFF);
  9175  09BE  3050               	movlw	80
  9176  09BF  00F6               	movwf	??_USBCtrlTrfOutHandler
  9177  09C0  3000               	movlw	0
  9178  09C1  00F7               	movwf	??_USBCtrlTrfOutHandler+1
  9179  09C2  086C               	movf	_pBDTEntryEP0OutNext^(0+128),w
  9180  09C3  3E02               	addlw	2
  9181  09C4  0086               	movwf	6
  9182  09C5  0187               	clrf	7
  9183  09C6  0876               	movf	??_USBCtrlTrfOutHandler,w
  9184  09C7  3FC0               	movwi [0]fsr1
  9185  09C8  0877               	movf	??_USBCtrlTrfOutHandler+1,w
  9186  09C9  3FC1               	movwi [1]fsr1
  9187                           
  9188                           ;usb_device.c: 2576: pBDTEntryEP0OutNext->STAT.Val = 0x00|(0x08 & 0x08)|0x04;
  9189  09CA  300C               	movlw	12
  9190  09CB  00F6               	movwf	??_USBCtrlTrfOutHandler
  9191  09CC  086C               	movf	_pBDTEntryEP0OutNext^(0+128),w
  9192  09CD  0086               	movwf	6
  9193  09CE  0187               	clrf	7
  9194  09CF  0876               	movf	??_USBCtrlTrfOutHandler,w
  9195  09D0  0081               	movwf	1
  9196                           
  9197                           ;usb_device.c: 2577: pBDTEntryEP0OutNext->STAT.Val |= 0x80;
  9198  09D1  086C               	movf	_pBDTEntryEP0OutNext^(0+128),w
  9199  09D2  0086               	movwf	6
  9200  09D3  0187               	clrf	7
  9201  09D4  1781               	bsf	1,7
  9202                           
  9203                           ;usb_device.c: 2578: }
  9204  09D5  0008               	return
  9205  09D6                     i1l4990:	
  9206                           
  9207                           ;usb_device.c: 2579: else
  9208                           ;usb_device.c: 2580: {
  9209                           ;usb_device.c: 2581: BothEP0OutUOWNsSet = 0;
  9210  09D6  0023               	movlb	3	; select bank3
  9211  09D7  01C4               	clrf	_BothEP0OutUOWNsSet^(0+384)	;volatile
  9212  09D8  0008               	return
  9213  09D9                     __end_of_USBCtrlTrfOutHandler:	
  9214                           
  9215                           	psect	text41
  9216  05F1                     __ptext41:	
  9217 ;; *************** function _USBCtrlTrfRxService *****************
  9218 ;; Defined at:
  9219 ;;		line 1870 in file "/opt/microchip/mla/framework/usb/src/usb_device.c"
  9220 ;; Parameters:    Size  Location     Type
  9221 ;;		None
  9222 ;; Auto vars:     Size  Location     Type
  9223 ;;  byteToRead      1    5[COMMON] unsigned char 
  9224 ;;  i               1    4[COMMON] unsigned char 
  9225 ;; Return value:  Size  Location     Type
  9226 ;;		None               void
  9227 ;; Registers used:
  9228 ;;		wreg, fsr1l, fsr1h, status,2, status,0, pclath, cstack
  9229 ;; Tracked objects:
  9230 ;;		On entry : 0/0
  9231 ;;		On exit  : 0/0
  9232 ;;		Unchanged: 0/0
  9233 ;; Data sizes:     COMMON  BANK0h   BANK1   BANK2   BANK3   BANK4   BANK5   BANK6   BANK7   BANK8   BANK9  BANK10  BANK1
      +1  BANK12
  9234 ;;      Params:         0       0       0       0       0       0       0       0       0       0       0       0       
      +0       0
  9235 ;;      Locals:         2       0       0       0       0       0       0       0       0       0       0       0       
      +0       0
  9236 ;;      Temps:          2       0       0       0       0       0       0       0       0       0       0       0       
      +0       0
  9237 ;;      Totals:         4       0       0       0       0       0       0       0       0       0       0       0       
      +0       0
  9238 ;;Total ram usage:        4 bytes
  9239 ;; Hardware stack levels used:    1
  9240 ;; Hardware stack levels required when called:    1
  9241 ;; This function calls:
  9242 ;;		_USBCtrlEPAllowStatusStage
  9243 ;; This function is called by:
  9244 ;;		_USBCtrlTrfOutHandler
  9245 ;; This function uses a non-reentrant model
  9246 ;;
  9247                           
  9248                           
  9249                           ;psect for function _USBCtrlTrfRxService
  9250  05F1                     _USBCtrlTrfRxService:	
  9251                           
  9252                           ;usb_device.c: 1872: uint8_t byteToRead;
  9253                           ;usb_device.c: 1873: uint8_t i;
  9254                           ;usb_device.c: 1877: byteToRead = pBDTEntryEP0OutCurrent->CNT;
  9255                           
  9256                           ;incstack = 0
  9257                           ; Regs used in _USBCtrlTrfRxService: [wreg+fsr1l+fsr1h+status,2+status,0+pclath+cstack]
  9258  05F1  0023               	movlb	3	; select bank3
  9259  05F2  0859               	movf	_pBDTEntryEP0OutCurrent^(0+384),w
  9260  05F3  0086               	movwf	6
  9261  05F4  0187               	clrf	7
  9262  05F5  3F41               	moviw [1]fsr1
  9263  05F6  00F5               	movwf	USBCtrlTrfRxService@byteToRead
  9264                           
  9265                           ;usb_device.c: 1883: if(byteToRead > outPipes[0].wCount.Val)
  9266  05F7  0875               	movf	USBCtrlTrfRxService@byteToRead,w
  9267  05F8  00F2               	movwf	??_USBCtrlTrfRxService
  9268  05F9  01F3               	clrf	??_USBCtrlTrfRxService+1
  9269  05FA  0873               	movf	??_USBCtrlTrfRxService+1,w
  9270  05FB  0224               	subwf	((_outPipes+1)^(0+384)+3),w	;volatile
  9271  05FC  1D03               	skipz
  9272  05FD  2E00               	goto	u486_25
  9273  05FE  0872               	movf	??_USBCtrlTrfRxService,w
  9274  05FF  0223               	subwf	(_outPipes^(0+384)+3),w	;volatile
  9275  0600                     u486_25:	
  9276  0600  1803               	skipnc
  9277  0601  2E06               	goto	i1l369
  9278                           
  9279                           ;usb_device.c: 1884: {
  9280                           ;usb_device.c: 1885: byteToRead = outPipes[0].wCount.Val;
  9281  0602  0823               	movf	(_outPipes^(0+384)+3),w	;volatile
  9282  0603  00F2               	movwf	??_USBCtrlTrfRxService
  9283  0604  0872               	movf	??_USBCtrlTrfRxService,w
  9284  0605  00F5               	movwf	USBCtrlTrfRxService@byteToRead
  9285  0606                     i1l369:	
  9286                           
  9287                           ;usb_device.c: 1886: }
  9288                           ;usb_device.c: 1888: outPipes[0].wCount.Val -= byteToRead;
  9289  0606  0875               	movf	USBCtrlTrfRxService@byteToRead,w
  9290  0607  00F2               	movwf	??_USBCtrlTrfRxService
  9291  0608  01F3               	clrf	??_USBCtrlTrfRxService+1
  9292  0609  0872               	movf	??_USBCtrlTrfRxService,w
  9293  060A  02A3               	subwf	(_outPipes^(0+384)+3),f	;volatile
  9294  060B  0873               	movf	??_USBCtrlTrfRxService+1,w
  9295  060C  3BA4               	subwfb	((_outPipes+1)^(0+384)+3),f	;volatile
  9296                           
  9297                           ;usb_device.c: 1892: for(i=0;i<byteToRead;i++)
  9298  060D  01F4               	clrf	USBCtrlTrfRxService@i
  9299  060E                     i1l4850:	
  9300  060E  0875               	movf	USBCtrlTrfRxService@byteToRead,w
  9301  060F  0274               	subwf	USBCtrlTrfRxService@i,w
  9302  0610  1803               	btfsc	3,0
  9303  0611  2E27               	goto	i1l4852
  9304                           
  9305                           ;usb_device.c: 1893: {
  9306                           ;usb_device.c: 1894: *outPipes[0].pDst.bRam++ = CtrlTrfData[i];
  9307  0612  0874               	movf	USBCtrlTrfRxService@i,w
  9308  0613  3E58               	addlw	88
  9309  0614  0086               	movwf	6
  9310  0615  0187               	clrf	7
  9311  0616  0801               	movf	1,w
  9312  0617  00F2               	movwf	??_USBCtrlTrfRxService
  9313  0618  0820               	movf	_outPipes^(0+384),w	;volatile
  9314  0619  0086               	movwf	6
  9315  061A  3001               	movlw	1	; select bank2/3
  9316  061B  0087               	movwf	7
  9317  061C  0872               	movf	??_USBCtrlTrfRxService,w
  9318  061D  0081               	movwf	1
  9319  061E  3001               	movlw	1
  9320  061F  00F2               	movwf	??_USBCtrlTrfRxService
  9321  0620  0872               	movf	??_USBCtrlTrfRxService,w
  9322  0621  07A0               	addwf	_outPipes^(0+384),f	;volatile
  9323  0622  3001               	movlw	1
  9324  0623  00F2               	movwf	??_USBCtrlTrfRxService
  9325  0624  0872               	movf	??_USBCtrlTrfRxService,w
  9326  0625  07F4               	addwf	USBCtrlTrfRxService@i,f
  9327  0626  2E0E               	goto	i1l4850
  9328  0627                     i1l4852:	
  9329                           
  9330                           ;usb_device.c: 1895: }
  9331                           ;usb_device.c: 1899: if(outPipes[0].wCount.Val > 0)
  9332  0627  0823               	movf	(_outPipes^(0+384)+3),w	;volatile
  9333  0628  0424               	iorwf	((_outPipes+1)^(0+384)+3),w	;volatile
  9334  0629  1903               	btfsc	3,2
  9335  062A  2E5F               	goto	i1l4864
  9336                           
  9337                           ;usb_device.c: 1900: {
  9338                           ;usb_device.c: 1901: pBDTEntryEP0OutNext->CNT = 8;
  9339  062B  3008               	movlw	8
  9340  062C  00F2               	movwf	??_USBCtrlTrfRxService
  9341  062D  0021               	movlb	1	; select bank1
  9342  062E  0A6C               	incf	_pBDTEntryEP0OutNext^(0+128),w
  9343  062F  0086               	movwf	6
  9344  0630  0187               	clrf	7
  9345  0631  0872               	movf	??_USBCtrlTrfRxService,w
  9346  0632  0081               	movwf	1
  9347                           
  9348                           ;usb_device.c: 1902: pBDTEntryEP0OutNext->ADR = (((uint16_t)(&CtrlTrfData)) & 0x7FFF);
  9349  0633  3058               	movlw	88
  9350  0634  00F2               	movwf	??_USBCtrlTrfRxService
  9351  0635  3000               	movlw	0
  9352  0636  00F3               	movwf	??_USBCtrlTrfRxService+1
  9353  0637  086C               	movf	_pBDTEntryEP0OutNext^(0+128),w
  9354  0638  3E02               	addlw	2
  9355  0639  0086               	movwf	6
  9356  063A  0187               	clrf	7
  9357  063B  0872               	movf	??_USBCtrlTrfRxService,w
  9358  063C  3FC0               	movwi [0]fsr1
  9359  063D  0873               	movf	??_USBCtrlTrfRxService+1,w
  9360  063E  3FC1               	movwi [1]fsr1
  9361                           
  9362                           ;usb_device.c: 1903: if(pBDTEntryEP0OutCurrent->STAT.DTS == 0)
  9363  063F  0023               	movlb	3	; select bank3
  9364  0640  0859               	movf	_pBDTEntryEP0OutCurrent^(0+384),w
  9365  0641  0086               	movwf	6
  9366  0642  0187               	clrf	7
  9367  0643  1B01               	btfsc	1,6
  9368  0644  2E52               	goto	i1l4862
  9369                           
  9370                           ;usb_device.c: 1904: {
  9371                           ;usb_device.c: 1905: pBDTEntryEP0OutNext->STAT.Val = 0x40|(0x08 & 0x08);
  9372  0645  3048               	movlw	72
  9373  0646  00F2               	movwf	??_USBCtrlTrfRxService
  9374  0647  0021               	movlb	1	; select bank1
  9375  0648  086C               	movf	_pBDTEntryEP0OutNext^(0+128),w
  9376  0649  0086               	movwf	6
  9377  064A  0187               	clrf	7
  9378  064B  0872               	movf	??_USBCtrlTrfRxService,w
  9379  064C  0081               	movwf	1
  9380                           
  9381                           ;usb_device.c: 1906: pBDTEntryEP0OutNext->STAT.Val |= 0x80;
  9382  064D  086C               	movf	_pBDTEntryEP0OutNext^(0+128),w
  9383  064E  0086               	movwf	6
  9384  064F  0187               	clrf	7
  9385  0650  1781               	bsf	1,7
  9386                           
  9387                           ;usb_device.c: 1907: }
  9388  0651  0008               	return
  9389  0652                     i1l4862:	
  9390                           
  9391                           ;usb_device.c: 1908: else
  9392                           ;usb_device.c: 1909: {
  9393                           ;usb_device.c: 1910: pBDTEntryEP0OutNext->STAT.Val = 0x00|(0x08 & 0x08);
  9394  0652  3008               	movlw	8
  9395  0653  00F2               	movwf	??_USBCtrlTrfRxService
  9396  0654  0021               	movlb	1	; select bank1
  9397  0655  086C               	movf	_pBDTEntryEP0OutNext^(0+128),w
  9398  0656  0086               	movwf	6
  9399  0657  0187               	clrf	7
  9400  0658  0872               	movf	??_USBCtrlTrfRxService,w
  9401  0659  0081               	movwf	1
  9402                           
  9403                           ;usb_device.c: 1911: pBDTEntryEP0OutNext->STAT.Val |= 0x80;
  9404  065A  086C               	movf	_pBDTEntryEP0OutNext^(0+128),w
  9405  065B  0086               	movwf	6
  9406  065C  0187               	clrf	7
  9407  065D  1781               	bsf	1,7
  9408                           
  9409                           ;usb_device.c: 1912: }
  9410                           ;usb_device.c: 1913: }
  9411  065E  0008               	return
  9412  065F                     i1l4864:	
  9413                           
  9414                           ;usb_device.c: 1914: else
  9415                           ;usb_device.c: 1915: {
  9416                           ;usb_device.c: 1919: pBDTEntryEP0OutNext->CNT = 8;
  9417  065F  3008               	movlw	8
  9418  0660  00F2               	movwf	??_USBCtrlTrfRxService
  9419  0661  0021               	movlb	1	; select bank1
  9420  0662  0A6C               	incf	_pBDTEntryEP0OutNext^(0+128),w
  9421  0663  0086               	movwf	6
  9422  0664  0187               	clrf	7
  9423  0665  0872               	movf	??_USBCtrlTrfRxService,w
  9424  0666  0081               	movwf	1
  9425                           
  9426                           ;usb_device.c: 1920: pBDTEntryEP0OutNext->ADR = (((uint16_t)(&SetupPkt)) & 0x7FFF);
  9427  0667  3050               	movlw	80
  9428  0668  00F2               	movwf	??_USBCtrlTrfRxService
  9429  0669  3000               	movlw	0
  9430  066A  00F3               	movwf	??_USBCtrlTrfRxService+1
  9431  066B  086C               	movf	_pBDTEntryEP0OutNext^(0+128),w
  9432  066C  3E02               	addlw	2
  9433  066D  0086               	movwf	6
  9434  066E  0187               	clrf	7
  9435  066F  0872               	movf	??_USBCtrlTrfRxService,w
  9436  0670  3FC0               	movwi [0]fsr1
  9437  0671  0873               	movf	??_USBCtrlTrfRxService+1,w
  9438  0672  3FC1               	movwi [1]fsr1
  9439                           
  9440                           ;usb_device.c: 1924: pBDTEntryEP0OutNext->STAT.Val = 0x04;
  9441  0673  3004               	movlw	4
  9442  0674  00F2               	movwf	??_USBCtrlTrfRxService
  9443  0675  086C               	movf	_pBDTEntryEP0OutNext^(0+128),w
  9444  0676  0086               	movwf	6
  9445  0677  0187               	clrf	7
  9446  0678  0872               	movf	??_USBCtrlTrfRxService,w
  9447  0679  0081               	movwf	1
  9448                           
  9449                           ;usb_device.c: 1925: pBDTEntryEP0OutNext->STAT.Val |= 0x80;
  9450  067A  086C               	movf	_pBDTEntryEP0OutNext^(0+128),w
  9451  067B  0086               	movwf	6
  9452  067C  0187               	clrf	7
  9453  067D  1781               	bsf	1,7
  9454                           
  9455                           ;usb_device.c: 1933: {
  9456                           ;usb_device.c: 1939: outPipes[0].pFunc();
  9457  067E  0023               	movlb	3	; select bank3
  9458  067F  0825               	movf	(low ((_outPipes| (0+256)+5)))^(0+128),w	;volatile
  9459  0680  0826               	movf	((low ((_outPipes| (0+256)+5))+1))^(0+128),w	;volatile
  9460                           
  9461                           ;usb_device.c: 1944: }
  9462                           ;usb_device.c: 1945: outPipes[0].info.bits.busy = 0;
  9463  0681  13A2               	bcf	(_outPipes^(0+384)+2),7	;volatile
  9464                           
  9465                           ;usb_device.c: 1959: if(USBDeferStatusStagePacket == 0)
  9466  0682  084B               	movf	_USBDeferStatusStagePacket^(0+384),w	;volatile
  9467  0683  1D03               	btfss	3,2
  9468  0684  0008               	return
  9469                           
  9470                           ;usb_device.c: 1960: {
  9471                           ;usb_device.c: 1961: USBCtrlEPAllowStatusStage();
  9472  0685  318E  263C         	fcall	_USBCtrlEPAllowStatusStage
  9473  0687  0008               	return
  9474  0688                     __end_of_USBCtrlTrfRxService:	
  9475                           
  9476                           	psect	text42
  9477  0E3C                     __ptext42:	
  9478 ;; *************** function _USBCtrlEPAllowStatusStage *****************
  9479 ;; Defined at:
  9480 ;;		line 1434 in file "/opt/microchip/mla/framework/usb/src/usb_device.c"
  9481 ;; Parameters:    Size  Location     Type
  9482 ;;		None
  9483 ;; Auto vars:     Size  Location     Type
  9484 ;;		None
  9485 ;; Return value:  Size  Location     Type
  9486 ;;		None               void
  9487 ;; Registers used:
  9488 ;;		wreg, fsr1l, fsr1h, status,2, status,0
  9489 ;; Tracked objects:
  9490 ;;		On entry : 0/0
  9491 ;;		On exit  : 0/0
  9492 ;;		Unchanged: 0/0
  9493 ;; Data sizes:     COMMON  BANK0h   BANK1   BANK2   BANK3   BANK4   BANK5   BANK6   BANK7   BANK8   BANK9  BANK10  BANK1
      +1  BANK12
  9494 ;;      Params:         0       0       0       0       0       0       0       0       0       0       0       0       
      +0       0
  9495 ;;      Locals:         0       0       0       0       0       0       0       0       0       0       0       0       
      +0       0
  9496 ;;      Temps:          2       0       0       0       0       0       0       0       0       0       0       0       
      +0       0
  9497 ;;      Totals:         2       0       0       0       0       0       0       0       0       0       0       0       
      +0       0
  9498 ;;Total ram usage:        2 bytes
  9499 ;; Hardware stack levels used:    1
  9500 ;; This function calls:
  9501 ;;		Nothing
  9502 ;; This function is called by:
  9503 ;;		_USBDeviceTasks
  9504 ;;		_USBCtrlEPServiceComplete
  9505 ;;		_USBCtrlTrfRxService
  9506 ;; This function uses a non-reentrant model
  9507 ;;
  9508                           
  9509                           
  9510                           ;psect for function _USBCtrlEPAllowStatusStage
  9511  0E3C                     _USBCtrlEPAllowStatusStage:	
  9512                           
  9513                           ;usb_device.c: 1441: if(USBStatusStageEnabledFlag1 == 0)
  9514                           
  9515                           ;incstack = 0
  9516                           ; Regs used in _USBCtrlEPAllowStatusStage: [wreg+fsr1l+fsr1h+status,2+status,0]
  9517  0E3C  0023               	movlb	3	; select bank3
  9518  0E3D  084D               	movf	_USBStatusStageEnabledFlag1^(0+384),w	;volatile
  9519  0E3E  1D03               	btfss	3,2
  9520  0E3F  0008               	return
  9521                           
  9522                           ;usb_device.c: 1442: {
  9523                           ;usb_device.c: 1443: USBStatusStageEnabledFlag1 = 1;
  9524  0E40  3001               	movlw	1
  9525  0E41  00F0               	movwf	??_USBCtrlEPAllowStatusStage
  9526  0E42  0870               	movf	??_USBCtrlEPAllowStatusStage,w
  9527  0E43  00CD               	movwf	_USBStatusStageEnabledFlag1^(0+384)	;volatile
  9528                           
  9529                           ;usb_device.c: 1444: if(USBStatusStageEnabledFlag2 == 0)
  9530  0E44  084E               	movf	_USBStatusStageEnabledFlag2^(0+384),w	;volatile
  9531  0E45  1D03               	btfss	3,2
  9532  0E46  0008               	return
  9533                           
  9534                           ;usb_device.c: 1445: {
  9535                           ;usb_device.c: 1446: USBStatusStageEnabledFlag2 = 1;
  9536  0E47  3001               	movlw	1
  9537  0E48  00F0               	movwf	??_USBCtrlEPAllowStatusStage
  9538  0E49  0870               	movf	??_USBCtrlEPAllowStatusStage,w
  9539  0E4A  00CE               	movwf	_USBStatusStageEnabledFlag2^(0+384)	;volatile
  9540                           
  9541                           ;usb_device.c: 1450: if(controlTransferState == 2)
  9542  0E4B  3002               	movlw	2
  9543  0E4C  0656               	xorwf	_controlTransferState^(0+384),w	;volatile
  9544  0E4D  1D03               	btfss	3,2
  9545  0E4E  2E5F               	goto	i1l4544
  9546                           
  9547                           ;usb_device.c: 1451: {
  9548                           ;usb_device.c: 1452: pBDTEntryIn[0]->CNT = 0;
  9549  0E4F  0A35               	incf	_pBDTEntryIn^(0+384),w
  9550  0E50  0086               	movwf	6
  9551  0E51  0187               	clrf	7
  9552  0E52  0181               	clrf	1
  9553                           
  9554                           ;usb_device.c: 1453: pBDTEntryIn[0]->STAT.Val = 0x40|(0x08 & 0x08);
  9555  0E53  3048               	movlw	72
  9556  0E54  00F0               	movwf	??_USBCtrlEPAllowStatusStage
  9557  0E55  0835               	movf	_pBDTEntryIn^(0+384),w
  9558  0E56  0086               	movwf	6
  9559  0E57  0187               	clrf	7
  9560  0E58  0870               	movf	??_USBCtrlEPAllowStatusStage,w
  9561  0E59  0081               	movwf	1
  9562                           
  9563                           ;usb_device.c: 1454: pBDTEntryIn[0]->STAT.Val |= 0x80;
  9564  0E5A  0835               	movf	_pBDTEntryIn^(0+384),w
  9565  0E5B  0086               	movwf	6
  9566  0E5C  0187               	clrf	7
  9567  0E5D  1781               	bsf	1,7
  9568                           
  9569                           ;usb_device.c: 1455: }
  9570  0E5E  0008               	return
  9571  0E5F                     i1l4544:	
  9572                           
  9573                           ;usb_device.c: 1456: else if(controlTransferState == 1)
  9574  0E5F  0356               	decf	_controlTransferState^(0+384),w	;volatile
  9575  0E60  1D03               	btfss	3,2
  9576  0E61  0008               	return
  9577                           
  9578                           ;usb_device.c: 1457: {
  9579                           ;usb_device.c: 1458: BothEP0OutUOWNsSet = 0;
  9580  0E62  01C4               	clrf	_BothEP0OutUOWNsSet^(0+384)	;volatile
  9581                           
  9582                           ;usb_device.c: 1463: pBDTEntryEP0OutCurrent->CNT = 8;
  9583  0E63  3008               	movlw	8
  9584  0E64  00F0               	movwf	??_USBCtrlEPAllowStatusStage
  9585  0E65  0A59               	incf	_pBDTEntryEP0OutCurrent^(0+384),w
  9586  0E66  0086               	movwf	6
  9587  0E67  0187               	clrf	7
  9588  0E68  0870               	movf	??_USBCtrlEPAllowStatusStage,w
  9589  0E69  0081               	movwf	1
  9590                           
  9591                           ;usb_device.c: 1464: pBDTEntryEP0OutCurrent->ADR = (((uint16_t)(&SetupPkt)) & 0x7FFF);
  9592  0E6A  3050               	movlw	80
  9593  0E6B  00F0               	movwf	??_USBCtrlEPAllowStatusStage
  9594  0E6C  3000               	movlw	0
  9595  0E6D  00F1               	movwf	??_USBCtrlEPAllowStatusStage+1
  9596  0E6E  0859               	movf	_pBDTEntryEP0OutCurrent^(0+384),w
  9597  0E6F  3E02               	addlw	2
  9598  0E70  0086               	movwf	6
  9599  0E71  0187               	clrf	7
  9600  0E72  0870               	movf	??_USBCtrlEPAllowStatusStage,w
  9601  0E73  3FC0               	movwi [0]fsr1
  9602  0E74  0871               	movf	??_USBCtrlEPAllowStatusStage+1,w
  9603  0E75  3FC1               	movwi [1]fsr1
  9604                           
  9605                           ;usb_device.c: 1465: pBDTEntryEP0OutCurrent->STAT.Val = 0x04;
  9606  0E76  3004               	movlw	4
  9607  0E77  00F0               	movwf	??_USBCtrlEPAllowStatusStage
  9608  0E78  0859               	movf	_pBDTEntryEP0OutCurrent^(0+384),w
  9609  0E79  0086               	movwf	6
  9610  0E7A  0187               	clrf	7
  9611  0E7B  0870               	movf	??_USBCtrlEPAllowStatusStage,w
  9612  0E7C  0081               	movwf	1
  9613                           
  9614                           ;usb_device.c: 1466: pBDTEntryEP0OutCurrent->STAT.Val |= 0x80;
  9615  0E7D  0859               	movf	_pBDTEntryEP0OutCurrent^(0+384),w
  9616  0E7E  0086               	movwf	6
  9617  0E7F  0187               	clrf	7
  9618  0E80  1781               	bsf	1,7
  9619                           
  9620                           ;usb_device.c: 1467: BothEP0OutUOWNsSet = 1;
  9621  0E81  3001               	movlw	1
  9622  0E82  00F0               	movwf	??_USBCtrlEPAllowStatusStage
  9623  0E83  0870               	movf	??_USBCtrlEPAllowStatusStage,w
  9624  0E84  00C4               	movwf	_BothEP0OutUOWNsSet^(0+384)	;volatile
  9625                           
  9626                           ;usb_device.c: 1471: pBDTEntryEP0OutNext->CNT = 8;
  9627  0E85  3008               	movlw	8
  9628  0E86  00F0               	movwf	??_USBCtrlEPAllowStatusStage
  9629  0E87  0021               	movlb	1	; select bank1
  9630  0E88  0A6C               	incf	_pBDTEntryEP0OutNext^(0+128),w
  9631  0E89  0086               	movwf	6
  9632  0E8A  0187               	clrf	7
  9633  0E8B  0870               	movf	??_USBCtrlEPAllowStatusStage,w
  9634  0E8C  0081               	movwf	1
  9635                           
  9636                           ;usb_device.c: 1472: pBDTEntryEP0OutNext->ADR = (((uint16_t)(&SetupPkt)) & 0x7FFF);
  9637  0E8D  3050               	movlw	80
  9638  0E8E  00F0               	movwf	??_USBCtrlEPAllowStatusStage
  9639  0E8F  3000               	movlw	0
  9640  0E90  00F1               	movwf	??_USBCtrlEPAllowStatusStage+1
  9641  0E91  086C               	movf	_pBDTEntryEP0OutNext^(0+128),w
  9642  0E92  3E02               	addlw	2
  9643  0E93  0086               	movwf	6
  9644  0E94  0187               	clrf	7
  9645  0E95  0870               	movf	??_USBCtrlEPAllowStatusStage,w
  9646  0E96  3FC0               	movwi [0]fsr1
  9647  0E97  0871               	movf	??_USBCtrlEPAllowStatusStage+1,w
  9648  0E98  3FC1               	movwi [1]fsr1
  9649                           
  9650                           ;usb_device.c: 1473: pBDTEntryEP0OutNext->STAT.Val = 0x80;
  9651  0E99  3080               	movlw	128
  9652  0E9A  00F0               	movwf	??_USBCtrlEPAllowStatusStage
  9653  0E9B  086C               	movf	_pBDTEntryEP0OutNext^(0+128),w
  9654  0E9C  0086               	movwf	6
  9655  0E9D  0187               	clrf	7
  9656  0E9E  0870               	movf	??_USBCtrlEPAllowStatusStage,w
  9657  0E9F  0081               	movwf	1
  9658  0EA0  0008               	return
  9659  0EA1                     __end_of_USBCtrlEPAllowStatusStage:	
  9660                           
  9661                           	psect	text43
  9662  079C                     __ptext43:	
  9663 ;; *************** function _USBCtrlTrfInHandler *****************
  9664 ;; Defined at:
  9665 ;;		line 2609 in file "/opt/microchip/mla/framework/usb/src/usb_device.c"
  9666 ;; Parameters:    Size  Location     Type
  9667 ;;		None
  9668 ;; Auto vars:     Size  Location     Type
  9669 ;;  lastDTS         1    5[COMMON] unsigned char 
  9670 ;; Return value:  Size  Location     Type
  9671 ;;		None               void
  9672 ;; Registers used:
  9673 ;;		wreg, fsr0l, fsr0h, fsr1l, fsr1h, status,2, status,0, pclath, cstack
  9674 ;; Tracked objects:
  9675 ;;		On entry : 0/0
  9676 ;;		On exit  : 0/0
  9677 ;;		Unchanged: 0/0
  9678 ;; Data sizes:     COMMON  BANK0h   BANK1   BANK2   BANK3   BANK4   BANK5   BANK6   BANK7   BANK8   BANK9  BANK10  BANK1
      +1  BANK12
  9679 ;;      Params:         0       0       0       0       0       0       0       0       0       0       0       0       
      +0       0
  9680 ;;      Locals:         1       0       0       0       0       0       0       0       0       0       0       0       
      +0       0
  9681 ;;      Temps:          2       0       0       0       0       0       0       0       0       0       0       0       
      +0       0
  9682 ;;      Totals:         3       0       0       0       0       0       0       0       0       0       0       0       
      +0       0
  9683 ;;Total ram usage:        3 bytes
  9684 ;; Hardware stack levels used:    1
  9685 ;; Hardware stack levels required when called:    1
  9686 ;; This function calls:
  9687 ;;		_USBCtrlTrfTxService
  9688 ;; This function is called by:
  9689 ;;		_USBCtrlEPService
  9690 ;; This function uses a non-reentrant model
  9691 ;;
  9692                           
  9693                           
  9694                           ;psect for function _USBCtrlTrfInHandler
  9695  079C                     _USBCtrlTrfInHandler:	
  9696                           
  9697                           ;usb_device.c: 2611: uint8_t lastDTS;
  9698                           ;usb_device.c: 2613: lastDTS = pBDTEntryIn[0]->STAT.DTS;
  9699                           
  9700                           ;incstack = 0
  9701                           ; Regs used in _USBCtrlTrfInHandler: [wreg-fsr1h+status,2+status,0+pclath+cstack]
  9702  079C  0023               	movlb	3	; select bank3
  9703  079D  0835               	movf	_pBDTEntryIn^(0+384),w
  9704  079E  0086               	movwf	6
  9705  079F  0187               	clrf	7
  9706  07A0  3000               	movlw	0
  9707  07A1  1B01               	btfsc	1,6
  9708  07A2  3001               	movlw	1
  9709  07A3  00F5               	movwf	USBCtrlTrfInHandler@lastDTS
  9710                           
  9711                           ;usb_device.c: 2616: ((uint8_t_VAL*)&pBDTEntryIn[0])->Val ^= 0x0004;
  9712  07A4  3004               	movlw	4
  9713  07A5  00F3               	movwf	??_USBCtrlTrfInHandler
  9714  07A6  0873               	movf	??_USBCtrlTrfInHandler,w
  9715  07A7  06B5               	xorwf	_pBDTEntryIn^(0+384),f
  9716                           
  9717                           ;usb_device.c: 2621: if(USBDeviceState == ADR_PENDING_STATE)
  9718  07A8  3008               	movlw	8
  9719  07A9  064C               	xorwf	_USBDeviceState^(0+384),w	;volatile
  9720  07AA  1D03               	btfss	3,2
  9721  07AB  2FBB               	goto	i1l5006
  9722                           
  9723                           ;usb_device.c: 2622: {
  9724                           ;usb_device.c: 2623: UADDR = (SetupPkt.bDevADR & 0x7F);
  9725  07AC  0020               	movlb	0	; select bank0
  9726  07AD  0852               	movf	82,w	;volatile
  9727  07AE  397F               	andlw	127
  9728  07AF  003D               	movlb	29	; select bank29
  9729  07B0  0096               	movwf	22	;volatile
  9730                           
  9731                           ;usb_device.c: 2624: if(UADDR != 0u)
  9732  07B1  0816               	movf	22,w	;volatile
  9733  07B2  1903               	btfsc	3,2
  9734  07B3  2FB6               	goto	i1l5004
  9735                           
  9736                           ;usb_device.c: 2625: {
  9737                           ;usb_device.c: 2626: USBDeviceState=ADDRESS_STATE;
  9738  07B4  3010               	movlw	16
  9739  07B5  2FB7               	goto	L15
  9740  07B6                     i1l5004:	
  9741                           ;usb_device.c: 2627: }
  9742                           
  9743                           
  9744                           ;usb_device.c: 2628: else
  9745                           ;usb_device.c: 2629: {
  9746                           ;usb_device.c: 2630: USBDeviceState=DEFAULT_STATE;
  9747  07B6  3004               	movlw	4
  9748  07B7                     L15:	
  9749  07B7  00F3               	movwf	??_USBCtrlTrfInHandler
  9750  07B8  0873               	movf	??_USBCtrlTrfInHandler,w
  9751  07B9  0023               	movlb	3	; select bank3
  9752  07BA  00CC               	movwf	_USBDeviceState^(0+384)	;volatile
  9753  07BB                     i1l5006:	
  9754                           
  9755                           ;usb_device.c: 2631: }
  9756                           ;usb_device.c: 2632: }
  9757                           ;usb_device.c: 2635: if(controlTransferState == 1)
  9758  07BB  0356               	decf	_controlTransferState^(0+384),w	;volatile
  9759  07BC  1D03               	btfss	3,2
  9760  07BD  2FF9               	goto	i1l454
  9761                           
  9762                           ;usb_device.c: 2636: {
  9763                           ;usb_device.c: 2637: pBDTEntryIn[0]->ADR = (((uint16_t)(CtrlTrfData)) & 0x7FFF);
  9764  07BE  3058               	movlw	88
  9765  07BF  00F3               	movwf	??_USBCtrlTrfInHandler
  9766  07C0  3000               	movlw	0
  9767  07C1  00F4               	movwf	??_USBCtrlTrfInHandler+1
  9768  07C2  0835               	movf	_pBDTEntryIn^(0+384),w
  9769  07C3  3E02               	addlw	2
  9770  07C4  0086               	movwf	6
  9771  07C5  0187               	clrf	7
  9772  07C6  0873               	movf	??_USBCtrlTrfInHandler,w
  9773  07C7  3FC0               	movwi [0]fsr1
  9774  07C8  0874               	movf	??_USBCtrlTrfInHandler+1,w
  9775  07C9  3FC1               	movwi [1]fsr1
  9776                           
  9777                           ;usb_device.c: 2638: USBCtrlTrfTxService();
  9778  07CA  318E  26A1  3187   	fcall	_USBCtrlTrfTxService
  9779                           
  9780                           ;usb_device.c: 2644: if(shortPacketStatus == 2)
  9781  07CD  3002               	movlw	2
  9782  07CE  0023               	movlb	3	; select bank3
  9783  07CF  065B               	xorwf	_shortPacketStatus^(0+384),w	;volatile
  9784  07D0  1D03               	btfss	3,2
  9785  07D1  2FDE               	goto	i1l5016
  9786                           
  9787                           ;usb_device.c: 2645: {
  9788                           ;usb_device.c: 2648: pBDTEntryIn[0]->STAT.Val = 0x04;
  9789  07D2  3004               	movlw	4
  9790  07D3  00F3               	movwf	??_USBCtrlTrfInHandler
  9791  07D4  0835               	movf	_pBDTEntryIn^(0+384),w
  9792  07D5  0086               	movwf	6
  9793  07D6  0187               	clrf	7
  9794  07D7  0873               	movf	??_USBCtrlTrfInHandler,w
  9795  07D8  0081               	movwf	1
  9796                           
  9797                           ;usb_device.c: 2649: pBDTEntryIn[0]->STAT.Val |= 0x80;
  9798  07D9  0835               	movf	_pBDTEntryIn^(0+384),w
  9799  07DA  0086               	movwf	6
  9800  07DB  0187               	clrf	7
  9801  07DC  1781               	bsf	1,7
  9802                           
  9803                           ;usb_device.c: 2650: }
  9804  07DD  0008               	return
  9805  07DE                     i1l5016:	
  9806                           
  9807                           ;usb_device.c: 2651: else
  9808                           ;usb_device.c: 2652: {
  9809                           ;usb_device.c: 2653: if(lastDTS == 0)
  9810  07DE  0875               	movf	USBCtrlTrfInHandler@lastDTS,w
  9811  07DF  1D03               	btfss	3,2
  9812  07E0  2FED               	goto	i1l5020
  9813                           
  9814                           ;usb_device.c: 2654: {
  9815                           ;usb_device.c: 2655: pBDTEntryIn[0]->STAT.Val = 0x40|(0x08 & 0x08);
  9816  07E1  3048               	movlw	72
  9817  07E2  00F3               	movwf	??_USBCtrlTrfInHandler
  9818  07E3  0835               	movf	_pBDTEntryIn^(0+384),w
  9819  07E4  0086               	movwf	6
  9820  07E5  0187               	clrf	7
  9821  07E6  0873               	movf	??_USBCtrlTrfInHandler,w
  9822  07E7  0081               	movwf	1
  9823                           
  9824                           ;usb_device.c: 2656: pBDTEntryIn[0]->STAT.Val |= 0x80;
  9825  07E8  0835               	movf	_pBDTEntryIn^(0+384),w
  9826  07E9  0086               	movwf	6
  9827  07EA  0187               	clrf	7
  9828  07EB  1781               	bsf	1,7
  9829                           
  9830                           ;usb_device.c: 2657: }
  9831  07EC  0008               	return
  9832  07ED                     i1l5020:	
  9833                           
  9834                           ;usb_device.c: 2658: else
  9835                           ;usb_device.c: 2659: {
  9836                           ;usb_device.c: 2660: pBDTEntryIn[0]->STAT.Val = 0x00|(0x08 & 0x08);
  9837  07ED  3008               	movlw	8
  9838  07EE  00F3               	movwf	??_USBCtrlTrfInHandler
  9839  07EF  0835               	movf	_pBDTEntryIn^(0+384),w
  9840  07F0  0086               	movwf	6
  9841  07F1  0187               	clrf	7
  9842  07F2  0873               	movf	??_USBCtrlTrfInHandler,w
  9843  07F3  0081               	movwf	1
  9844                           
  9845                           ;usb_device.c: 2661: pBDTEntryIn[0]->STAT.Val |= 0x80;
  9846  07F4  0835               	movf	_pBDTEntryIn^(0+384),w
  9847  07F5  0086               	movwf	6
  9848  07F6  0187               	clrf	7
  9849  07F7  1781               	bsf	1,7
  9850                           
  9851                           ;usb_device.c: 2662: }
  9852                           ;usb_device.c: 2663: }
  9853                           ;usb_device.c: 2664: }
  9854  07F8  0008               	return
  9855  07F9                     i1l454:	
  9856                           
  9857                           ;usb_device.c: 2665: else
  9858                           ;usb_device.c: 2666: {
  9859                           ;usb_device.c: 2670: if(outPipes[0].info.bits.busy == 1)
  9860  07F9  1FA2               	btfss	(_outPipes^(0+384)+2),7	;volatile
  9861  07FA  2FFE               	goto	i1l5024
  9862                           
  9863                           ;usb_device.c: 2673: {
  9864                           ;usb_device.c: 2674: outPipes[0].pFunc();
  9865  07FB  0825               	movf	(low ((_outPipes| (0+256)+5)))^(0+128),w	;volatile
  9866  07FC  0826               	movf	((low ((_outPipes| (0+256)+5))+1))^(0+128),w	;volatile
  9867                           
  9868                           ;usb_device.c: 2675: }
  9869                           ;usb_device.c: 2676: outPipes[0].info.bits.busy = 0;
  9870  07FD  13A2               	bcf	(_outPipes^(0+384)+2),7	;volatile
  9871  07FE                     i1l5024:	
  9872                           
  9873                           ;usb_device.c: 2677: }
  9874                           ;usb_device.c: 2679: controlTransferState = 0;
  9875  07FE  01D6               	clrf	_controlTransferState^(0+384)	;volatile
  9876  07FF  0008               	return
  9877  0800                     __end_of_USBCtrlTrfInHandler:	
  9878                           
  9879                           	psect	text44
  9880  0EA1                     __ptext44:	
  9881 ;; *************** function _USBCtrlTrfTxService *****************
  9882 ;; Defined at:
  9883 ;;		line 1789 in file "/opt/microchip/mla/framework/usb/src/usb_device.c"
  9884 ;; Parameters:    Size  Location     Type
  9885 ;;		None
  9886 ;; Auto vars:     Size  Location     Type
  9887 ;;  byteToSend      1    2[COMMON] unsigned char 
  9888 ;; Return value:  Size  Location     Type
  9889 ;;		None               void
  9890 ;; Registers used:
  9891 ;;		wreg, fsr0l, fsr0h, fsr1l, fsr1h, status,2, status,0, pclath
  9892 ;; Tracked objects:
  9893 ;;		On entry : 0/0
  9894 ;;		On exit  : 0/0
  9895 ;;		Unchanged: 0/0
  9896 ;; Data sizes:     COMMON  BANK0h   BANK1   BANK2   BANK3   BANK4   BANK5   BANK6   BANK7   BANK8   BANK9  BANK10  BANK1
      +1  BANK12
  9897 ;;      Params:         0       0       0       0       0       0       0       0       0       0       0       0       
      +0       0
  9898 ;;      Locals:         1       0       0       0       0       0       0       0       0       0       0       0       
      +0       0
  9899 ;;      Temps:          2       0       0       0       0       0       0       0       0       0       0       0       
      +0       0
  9900 ;;      Totals:         3       0       0       0       0       0       0       0       0       0       0       0       
      +0       0
  9901 ;;Total ram usage:        3 bytes
  9902 ;; Hardware stack levels used:    1
  9903 ;; This function calls:
  9904 ;;		Nothing
  9905 ;; This function is called by:
  9906 ;;		_USBCtrlEPAllowDataStage
  9907 ;;		_USBCtrlTrfInHandler
  9908 ;; This function uses a non-reentrant model
  9909 ;;
  9910                           
  9911                           
  9912                           ;psect for function _USBCtrlTrfTxService
  9913  0EA1                     _USBCtrlTrfTxService:	
  9914                           
  9915                           ;usb_device.c: 1791: uint8_t byteToSend;
  9916                           ;usb_device.c: 1795: byteToSend = 8;
  9917                           
  9918                           ;incstack = 0
  9919                           ; Regs used in _USBCtrlTrfTxService: [wreg-fsr1h+status,2+status,0+pclath]
  9920  0EA1  3008               	movlw	8
  9921  0EA2  00F0               	movwf	??_USBCtrlTrfTxService
  9922  0EA3  0870               	movf	??_USBCtrlTrfTxService,w
  9923  0EA4  00F2               	movwf	USBCtrlTrfTxService@byteToSend
  9924                           
  9925                           ;usb_device.c: 1796: if(inPipes[0].wCount.Val < (uint8_t)8)
  9926  0EA5  3000               	movlw	0
  9927  0EA6  0021               	movlb	1	; select bank1
  9928  0EA7  026B               	subwf	((_inPipes+1)^(0+128)+3),w	;volatile
  9929  0EA8  3008               	movlw	8
  9930  0EA9  1903               	skipnz
  9931  0EAA  026A               	subwf	(_inPipes^(0+128)+3),w	;volatile
  9932  0EAB  1803               	skipnc
  9933  0EAC  2EBE               	goto	i1l354
  9934                           
  9935                           ;usb_device.c: 1797: {
  9936                           ;usb_device.c: 1798: byteToSend = inPipes[0].wCount.Val;
  9937  0EAD  086A               	movf	(_inPipes^(0+128)+3),w	;volatile
  9938  0EAE  00F0               	movwf	??_USBCtrlTrfTxService
  9939  0EAF  0870               	movf	??_USBCtrlTrfTxService,w
  9940  0EB0  00F2               	movwf	USBCtrlTrfTxService@byteToSend
  9941                           
  9942                           ;usb_device.c: 1805: if(shortPacketStatus == 0)
  9943  0EB1  0023               	movlb	3	; select bank3
  9944  0EB2  085B               	movf	_shortPacketStatus^(0+384),w	;volatile
  9945  0EB3  1D03               	btfss	3,2
  9946  0EB4  2EB7               	goto	i1l4488
  9947                           
  9948                           ;usb_device.c: 1806: {
  9949                           ;usb_device.c: 1807: shortPacketStatus = 1;
  9950  0EB5  3001               	movlw	1
  9951  0EB6  2EBB               	goto	L16
  9952  0EB7                     i1l4488:	
  9953                           ;usb_device.c: 1808: }
  9954                           
  9955                           
  9956                           ;usb_device.c: 1809: else if(shortPacketStatus == 1)
  9957  0EB7  035B               	decf	_shortPacketStatus^(0+384),w	;volatile
  9958  0EB8  1D03               	btfss	3,2
  9959  0EB9  2EBE               	goto	i1l354
  9960                           
  9961                           ;usb_device.c: 1810: {
  9962                           ;usb_device.c: 1811: shortPacketStatus = 2;
  9963  0EBA  3002               	movlw	2
  9964  0EBB                     L16:	
  9965  0EBB  00F0               	movwf	??_USBCtrlTrfTxService
  9966  0EBC  0870               	movf	??_USBCtrlTrfTxService,w
  9967  0EBD  00DB               	movwf	_shortPacketStatus^(0+384)	;volatile
  9968  0EBE                     i1l354:	
  9969                           
  9970                           ;usb_device.c: 1812: }
  9971                           ;usb_device.c: 1813: }
  9972                           ;usb_device.c: 1817: inPipes[0].wCount.Val -= byteToSend;
  9973  0EBE  0872               	movf	USBCtrlTrfTxService@byteToSend,w
  9974  0EBF  00F0               	movwf	??_USBCtrlTrfTxService
  9975  0EC0  01F1               	clrf	??_USBCtrlTrfTxService+1
  9976  0EC1  0870               	movf	??_USBCtrlTrfTxService,w
  9977  0EC2  0021               	movlb	1	; select bank1
  9978  0EC3  02EA               	subwf	(_inPipes^(0+128)+3),f	;volatile
  9979  0EC4  0871               	movf	??_USBCtrlTrfTxService+1,w
  9980  0EC5  3BEB               	subwfb	((_inPipes+1)^(0+128)+3),f	;volatile
  9981                           
  9982                           ;usb_device.c: 1822: pBDTEntryIn[0]->CNT = byteToSend;
  9983  0EC6  0872               	movf	USBCtrlTrfTxService@byteToSend,w
  9984  0EC7  00F0               	movwf	??_USBCtrlTrfTxService
  9985  0EC8  0023               	movlb	3	; select bank3
  9986  0EC9  0A35               	incf	_pBDTEntryIn^(0+384),w
  9987  0ECA  0086               	movwf	6
  9988  0ECB  0187               	clrf	7
  9989  0ECC  0870               	movf	??_USBCtrlTrfTxService,w
  9990  0ECD  0081               	movwf	1
  9991                           
  9992                           ;usb_device.c: 1826: pDst = (volatile uint8_t*)CtrlTrfData;
  9993  0ECE  3058               	movlw	88
  9994  0ECF  00F0               	movwf	??_USBCtrlTrfTxService
  9995  0ED0  0870               	movf	??_USBCtrlTrfTxService,w
  9996  0ED1  00DA               	movwf	_pDst^(0+384)
  9997                           
  9998                           ;usb_device.c: 1827: if(inPipes[0].info.bits.ctrl_trf_mem == 0x00)
  9999  0ED2  0021               	movlb	1	; select bank1
 10000  0ED3  1C69               	btfss	(_inPipes^(0+128)+2),0	;volatile
 10001  0ED4  2EEF               	goto	i1l4508
 10002  0ED5  2F0C               	goto	i1l4518
 10003  0ED6                     i1l4500:	
 10004                           ;usb_device.c: 1828: {
 10005                           ;usb_device.c: 1829: while(byteToSend)
 10006                           
 10007                           
 10008                           ;usb_device.c: 1830: {
 10009                           ;usb_device.c: 1831: *pDst++ = *inPipes[0].pSrc.bRom++;
 10010  0ED6  0021               	movlb	1	; select bank1
 10011  0ED7  0867               	movf	_inPipes^(0+128),w	;volatile
 10012  0ED8  0084               	movwf	4
 10013  0ED9  0868               	movf	(_inPipes+1)^(0+128),w	;volatile
 10014  0EDA  0085               	movwf	5
 10015  0EDB  0800               	movf	0,w	;code access
 10016  0EDC  00F0               	movwf	??_USBCtrlTrfTxService
 10017  0EDD  0023               	movlb	3	; select bank3
 10018  0EDE  085A               	movf	_pDst^(0+384),w
 10019  0EDF  0086               	movwf	6
 10020  0EE0  0187               	clrf	7
 10021  0EE1  0870               	movf	??_USBCtrlTrfTxService,w
 10022  0EE2  0081               	movwf	1
 10023  0EE3  3001               	movlw	1
 10024  0EE4  0021               	movlb	1	; select bank1
 10025  0EE5  07E7               	addwf	_inPipes^(0+128),f	;volatile
 10026  0EE6  3000               	movlw	0
 10027  0EE7  3DE8               	addwfc	(_inPipes+1)^(0+128),f	;volatile
 10028  0EE8  3001               	movlw	1
 10029  0EE9  00F0               	movwf	??_USBCtrlTrfTxService
 10030  0EEA  0870               	movf	??_USBCtrlTrfTxService,w
 10031  0EEB  0023               	movlb	3	; select bank3
 10032  0EEC  07DA               	addwf	_pDst^(0+384),f
 10033                           
 10034                           ;usb_device.c: 1832: byteToSend--;
 10035  0EED  3001               	movlw	1
 10036  0EEE  02F2               	subwf	USBCtrlTrfTxService@byteToSend,f
 10037  0EEF                     i1l4508:	
 10038  0EEF  0872               	movf	USBCtrlTrfTxService@byteToSend,w
 10039  0EF0  1903               	btfsc	3,2
 10040  0EF1  0008               	return
 10041  0EF2  2ED6               	goto	i1l4500
 10042  0EF3                     i1l4510:	
 10043                           ;usb_device.c: 1835: else
 10044                           ;usb_device.c: 1836: {
 10045                           ;usb_device.c: 1837: while(byteToSend)
 10046                           
 10047                           ;usb_device.c: 1833: }
 10048                           ;usb_device.c: 1834: }
 10049                           
 10050                           
 10051                           ;usb_device.c: 1838: {
 10052                           ;usb_device.c: 1839: *pDst++ = *inPipes[0].pSrc.bRam++;
 10053  0EF3  0021               	movlb	1	; select bank1
 10054  0EF4  0867               	movf	_inPipes^(0+128),w	;volatile
 10055  0EF5  0084               	movwf	4
 10056  0EF6  0868               	movf	(_inPipes+1)^(0+128),w	;volatile
 10057  0EF7  0085               	movwf	5
 10058  0EF8  0800               	movf	0,w	;code access
 10059  0EF9  00F0               	movwf	??_USBCtrlTrfTxService
 10060  0EFA  0023               	movlb	3	; select bank3
 10061  0EFB  085A               	movf	_pDst^(0+384),w
 10062  0EFC  0086               	movwf	6
 10063  0EFD  0187               	clrf	7
 10064  0EFE  0870               	movf	??_USBCtrlTrfTxService,w
 10065  0EFF  0081               	movwf	1
 10066  0F00  3001               	movlw	1
 10067  0F01  0021               	movlb	1	; select bank1
 10068  0F02  07E7               	addwf	_inPipes^(0+128),f	;volatile
 10069  0F03  3000               	movlw	0
 10070  0F04  3DE8               	addwfc	(_inPipes+1)^(0+128),f	;volatile
 10071  0F05  3001               	movlw	1
 10072  0F06  00F0               	movwf	??_USBCtrlTrfTxService
 10073  0F07  0870               	movf	??_USBCtrlTrfTxService,w
 10074  0F08  0023               	movlb	3	; select bank3
 10075  0F09  07DA               	addwf	_pDst^(0+384),f
 10076                           
 10077                           ;usb_device.c: 1840: byteToSend--;
 10078  0F0A  3001               	movlw	1
 10079  0F0B  02F2               	subwf	USBCtrlTrfTxService@byteToSend,f
 10080  0F0C                     i1l4518:	
 10081  0F0C  0872               	movf	USBCtrlTrfTxService@byteToSend,w
 10082  0F0D  1903               	btfsc	3,2
 10083  0F0E  0008               	return
 10084  0F0F  2EF3               	goto	i1l4510
 10085  0F10                     __end_of_USBCtrlTrfTxService:	
 10086  007E                     btemp	set	126	;btemp
 10087  007E                     int$flags	set	126
 10088  007E                     wtemp	set	126
 10089  007E                     wtemp0	set	126
 10090  0080                     wtemp1	set	128
 10091  0082                     wtemp2	set	130
 10092  0084                     wtemp3	set	132
 10093  0086                     wtemp4	set	134
 10094  0088                     wtemp5	set	136
 10095  007F                     wtemp6	set	127
 10096  007E                     ttemp	set	126
 10097  007E                     ttemp0	set	126
 10098  0081                     ttemp1	set	129
 10099  0084                     ttemp2	set	132
 10100  0087                     ttemp3	set	135
 10101  007F                     ttemp4	set	127
 10102  007E                     ltemp	set	126
 10103  007E                     ltemp0	set	126
 10104  0082                     ltemp1	set	130
 10105  0086                     ltemp2	set	134
 10106  0080                     ltemp3	set	128


Data Sizes:
    Strings     0
    Constant    165
    Data        30
    BSS         231
    Persistent  0
    Stack       0

Auto Spaces:
    Space          Size  Autos    Used
    COMMON           14     14      14
    BANK0h           16     16      16
    BANK1            16      7      13
    BANK2            16     16      16
    BANK3            80      1      80
    BANK4            80      4      52
    BANK5            80      0      64
    BANK6            80      0      64
    BANK7            80      0       0
    BANK8            80      0       0
    BANK9            80      0       0
    BANK10           80      0       0
    BANK11           80      0       0
    BANK12           48      0       0

Pointer List with Targets:

    __builtin_memcpy$1	PTR const void  size(2) Largest target is 4096
		 -> RAM(DATA[4096]), CtrlTrfData(BANK0h[8]), cdc_data_tx(BANK1[64]), NULL(NULL[0]), 
		 -> cdc_data_rx(BANK2[64]), SetupPkt(ABS[8]), 

    __builtin_memcpy$0	PTR void  size(1) Largest target is 8
		 -> SetupPkt(ABS[8]), 

    USER_USB_CALLBACK_EVENT_HANDLER@pdata	PTR void  size(2) Largest target is 48
		 -> USTATcopy(BANK3[1]), USBActiveConfiguration(BANK3[1]), BDT(ABS[48]), NULL(NULL[0]), 

    memset@p1	PTR void  size(2) Largest target is 48
		 -> USBAlternateInterface(BANK3[2]), BDT(ABS[48]), 

    memset@p	PTR unsigned char  size(2) Largest target is 48
		 -> USBAlternateInterface(BANK3[2]), BDT(ABS[48]), 

    atoi@s	PTR const unsigned char  size(1) Largest target is 8
		 -> msg_buffer(BANK3[8]), 

    USBStdFeatureReqHandler@pUEP	PTR unsigned char  size(2) Largest target is 1
		 -> UEP0(SFR29[1]), 

    USBStdFeatureReqHandler@p	PTR struct __BDT size(1) Largest target is 48
		 -> BDT(ABS[48]), NULL(NULL[0]), 

    sp____builtin_memcpy	PTR void  size(2) Largest target is 4096
		 -> RAM(DATA[4096]), 

    USBStdGetStatusHandler@p	PTR struct __BDT size(1) Largest target is 48
		 -> BDT(ABS[48]), NULL(NULL[0]), 

    USB_SD_Ptr	const PTR const unsigned char [3] size(2) Largest target is 38
		 -> sd002(CODE[30]), sd001(CODE[38]), sd000(CODE[4]), 

    USB_CD_Ptr	const PTR const unsigned char [1] size(2) Largest target is 67
		 -> configDescriptor1(CODE[67]), 

    sp__memset	PTR void  size(2) Largest target is 48
		 -> USBAlternateInterface(BANK3[2]), BDT(ABS[48]), 

    USBStdSetCfgHandler@p	PTR unsigned char  size(2) Largest target is 1
		 -> UEP1(SFR29[1]), 

    pDst	PTR volatile unsigned char  size(1) Largest target is 8
		 -> CtrlTrfData(BANK0h[8]), NULL(NULL[0]), 

    USBConfigureEndpoint@handle	PTR volatile struct __BDT size(1) Largest target is 48
		 -> BDT(ABS[48]), 

    pBDTEntryEP0OutCurrent	PTR volatile struct __BDT size(1) Largest target is 48
		 -> BDT(ABS[48]), NULL(NULL[0]), 

    pBDTEntryEP0OutNext	PTR volatile struct __BDT size(1) Largest target is 48
		 -> BDT(ABS[48]), NULL(NULL[0]), 

    USBTransferOnePacket@data	PTR unsigned char  size(2) Largest target is 64
		 -> cdc_data_tx(BANK1[64]), NULL(NULL[0]), cdc_data_rx(BANK2[64]), 

    USBTransferOnePacket@handle	PTR volatile struct __BDT size(1) Largest target is 48
		 -> BDT(ABS[48]), NULL(NULL[0]), 

    USBEnableEndpoint@p	PTR unsigned char  size(2) Largest target is 1
		 -> UEP0(SFR29[1]), 

    pBDTEntryOut	PTR volatile struct __BDT[3] size(1) Largest target is 48
		 -> BDT(ABS[48]), NULL(NULL[0]), 

    pBDTEntryIn	PTR volatile struct __BDT[3] size(1) Largest target is 48
		 -> BDT(ABS[48]), NULL(NULL[0]), 

    USBDeviceInit@p	PTR unsigned char  size(2) Largest target is 1
		 -> UEP1(SFR29[1]), 

    putrsUSBUSART@data	PTR const unsigned char  size(1) Largest target is 19
		 -> buttonMessage(BANK4[19]), 

    putrsUSBUSART@pData	PTR const unsigned char  size(1) Largest target is 19
		 -> buttonMessage(BANK4[19]), 

    getsUSBUSART@buffer	PTR unsigned char  size(1) Largest target is 64
		 -> readBuffer(BANK5[64]), 

    CDCDataInHandle	PTR void  size(1) Largest target is 48
		 -> BDT(ABS[48]), NULL(NULL[0]), 

    sp__USBTransferOnePacket	PTR void  size(1) Largest target is 48
		 -> BDT(ABS[48]), NULL(NULL[0]), 

    CDCDataOutHandle	PTR void  size(1) Largest target is 48
		 -> BDT(ABS[48]), NULL(NULL[0]), 

    S304$pFunc	PTR FTN()void  size(2) Largest target is 0
		 -> Absolute function(), 

    outPipes.pFunc	PTR FTN()void  size(2) Largest target is 0
		 -> Absolute function(), 

    S294$wRam	PTR unsigned int  size(1) Largest target is 0

    outPipes.pDst.wRam	PTR unsigned int  size(1) Largest target is 0

    S294$bRam	PTR unsigned char  size(1) Largest target is 0

    outPipes.pDst.bRam	PTR unsigned char  size(1) Largest target is 0

    S269$wRom	PTR const unsigned int  size(1) Largest target is 0

    inPipes.pSrc.wRom	PTR const unsigned int  size(1) Largest target is 0

    S269$wRam	PTR unsigned int  size(1) Largest target is 0

    inPipes.pSrc.wRam	PTR unsigned int  size(1) Largest target is 0

    S269$bRom	PTR const unsigned char  size(1) Largest target is 0

    inPipes.pSrc.bRom	PTR const unsigned char  size(1) Largest target is 0

    S269$bRam	PTR unsigned char  size(1) Largest target is 0

    inPipes.pSrc.bRam	PTR unsigned char  size(1) Largest target is 0

    pCDCDst.wRom	PTR const unsigned int  size(1) Largest target is 0

    pCDCDst.bRom	PTR const unsigned char  size(1) Largest target is 0

    pCDCDst.wRam	PTR unsigned int  size(1) Largest target is 0

    pCDCDst.bRam	PTR unsigned char  size(1) Largest target is 0

    S36_POINTER$wRom	PTR const unsigned int  size(1) Largest target is 0

    pCDCSrc.wRom	PTR const unsigned int  size(1) Largest target is 0

    S36_POINTER$bRom	PTR const unsigned char  size(1) Largest target is 0

    pCDCSrc.bRom	PTR const unsigned char  size(1) Largest target is 0

    S36_POINTER$wRam	PTR unsigned int  size(1) Largest target is 0

    pCDCSrc.wRam	PTR unsigned int  size(1) Largest target is 0

    S36_POINTER$bRam	PTR unsigned char  size(1) Largest target is 0

    pCDCSrc.bRam	PTR unsigned char  size(1) Largest target is 0


Critical Paths under _main in COMMON

    None.

Critical Paths under _SYS_InterruptHigh in COMMON

    _USBCtrlEPServiceComplete->_USBCtrlEPAllowDataStage
    _USBCtrlEPAllowDataStage->_USBCtrlTrfTxService
    _USER_USB_CALLBACK_EVENT_HANDLER->_APP_DeviceCDCBasicDemoInitialize
    _APP_LEDUpdateUSBStatus->_LED_Off
    _CDCInitEP->_USBEnableEndpoint
    _USBEnableEndpoint->_USBConfigureEndpoint
    _USBCtrlTrfOutHandler->_USBCtrlTrfRxService
    _USBCtrlTrfRxService->_USBCtrlEPAllowStatusStage
    _USBCtrlTrfInHandler->_USBCtrlTrfTxService

Critical Paths under _main in BANK0h

    None.

Critical Paths under _SYS_InterruptHigh in BANK0h

    _USBWakeFromSuspend->_USER_USB_CALLBACK_EVENT_HANDLER
    _USBSuspend->_USER_USB_CALLBACK_EVENT_HANDLER
    _USBCtrlEPService->_USBCtrlTrfSetupHandler
    _USBCtrlTrfSetupHandler->_USBCheckStdRequest
    _USBCheckStdRequest->_USBStdFeatureReqHandler
    _USBStdSetCfgHandler->_USER_USB_CALLBACK_EVENT_HANDLER
    _USBStdFeatureReqHandler->_USER_USB_CALLBACK_EVENT_HANDLER
    _APP_DeviceCDCBasicDemoInitialize->_CDCInitEP

Critical Paths under _main in BANK1

    None.

Critical Paths under _SYS_InterruptHigh in BANK1

    _SYS_InterruptHigh->_USBDeviceTasks
    _USBDeviceTasks->_USBCtrlEPService

Critical Paths under _main in BANK2

    _main->_APP_DeviceCDCBasicDemoTasks
    _APP_DeviceCDCBasicDemoTasks->_atoi
    _getsUSBUSART->_USBTransferOnePacket
    _atoi->___wmul
    _CDCTxService->_USBTransferOnePacket

Critical Paths under _SYS_InterruptHigh in BANK2

    None.

Critical Paths under _main in BANK3

    None.

Critical Paths under _SYS_InterruptHigh in BANK3

    None.

Critical Paths under _main in BANK4

    _main->_APP_DeviceCDCBasicDemoTasks

Critical Paths under _SYS_InterruptHigh in BANK4

    None.

Critical Paths under _main in BANK5

    None.

Critical Paths under _SYS_InterruptHigh in BANK5

    None.

Critical Paths under _main in BANK6

    None.

Critical Paths under _SYS_InterruptHigh in BANK6

    None.

Critical Paths under _main in BANK7

    None.

Critical Paths under _SYS_InterruptHigh in BANK7

    None.

Critical Paths under _main in BANK8

    None.

Critical Paths under _SYS_InterruptHigh in BANK8

    None.

Critical Paths under _main in BANK9

    None.

Critical Paths under _SYS_InterruptHigh in BANK9

    None.

Critical Paths under _main in BANK10

    None.

Critical Paths under _SYS_InterruptHigh in BANK10

    None.

Critical Paths under _main in BANK11

    None.

Critical Paths under _SYS_InterruptHigh in BANK11

    None.

Critical Paths under _main in BANK12

    None.

Critical Paths under _SYS_InterruptHigh in BANK12

    None.

Call Graph Tables:

 ---------------------------------------------------------------------------------
 (Depth) Function   	        Calls       Base Space   Used Autos Params    Refs
 ---------------------------------------------------------------------------------
 (0) _main                                                 1     1      0   12839
                                              0 BANK3      1     1      0
        _APP_DeviceCDCBasicDemoTasks
                  _SYSTEM_Initialize
                    _USBDeviceAttach
                      _USBDeviceInit
 ---------------------------------------------------------------------------------
 (1) _USBDeviceInit                                        5     5      0     396
                                              0 BANK2      5     5      0
 ---------------------------------------------------------------------------------
 (1) _USBDeviceAttach                                      1     1      0       0
                                              0 BANK2      1     1      0
 ---------------------------------------------------------------------------------
 (1) _SYSTEM_Initialize                                    1     1      0      31
                                              0 BANK2      1     1      0
 ---------------------------------------------------------------------------------
 (1) _APP_DeviceCDCBasicDemoTasks                          6     6      0   12412
                                             14 BANK2      2     2      0
                                              0 BANK4      4     4      0
                       _CDCTxService
                               _atoi
                       _getsUSBUSART
                      _putrsUSBUSART
 ---------------------------------------------------------------------------------
 (2) _putrsUSBUSART                                        4     4      0     203
                                              0 BANK2      4     4      0
 ---------------------------------------------------------------------------------
 (2) _getsUSBUSART                                         4     3      1    2165
                                              8 BANK2      4     3      1
               _USBTransferOnePacket
 ---------------------------------------------------------------------------------
 (2) _atoi                                                 8     6      2    7440
                                              6 BANK2      8     6      2
                             ___wmul
                            _isdigit
 ---------------------------------------------------------------------------------
 (3) _isdigit                                              2     2      0      99
                                              0 BANK2      2     2      0
 ---------------------------------------------------------------------------------
 (3) ___wmul                                               6     2      4    6968
                                              0 BANK2      6     2      4
 ---------------------------------------------------------------------------------
 (2) _CDCTxService                                         4     4      0    2127
                                              8 BANK2      4     4      0
               _USBTransferOnePacket
 ---------------------------------------------------------------------------------
 (3) _USBTransferOnePacket                                 8     4      4    1926
                                              0 BANK2      8     4      4
 ---------------------------------------------------------------------------------
 Estimated maximum stack depth 3
 ---------------------------------------------------------------------------------
 (Depth) Function   	        Calls       Base Space   Used Autos Params    Refs
 ---------------------------------------------------------------------------------
 (4) _SYS_InterruptHigh                                    1     1      0   35403
                                              6 BANK1      1     1      0
                     _USBDeviceTasks
 ---------------------------------------------------------------------------------
 (5) _USBDeviceTasks                                       3     3      0   35403
                                              3 BANK1      3     3      0
          _USBCtrlEPAllowStatusStage
                   _USBCtrlEPService
      _USBIncrement1msInternalTimers
                    _USBStallHandler
                         _USBSuspend
                 _USBWakeFromSuspend
    _USER_USB_CALLBACK_EVENT_HANDLER
                    i1_USBDeviceInit
 ---------------------------------------------------------------------------------
 (6) i1_USBDeviceInit                                      5     5      0     396
                                              0 COMMON     5     5      0
 ---------------------------------------------------------------------------------
 (6) _USBWakeFromSuspend                                   1     1      0    4710
                                              8 BANK0h     1     1      0
    _USER_USB_CALLBACK_EVENT_HANDLER
 ---------------------------------------------------------------------------------
 (6) _USBSuspend                                           1     1      0    4710
                                              8 BANK0h     1     1      0
    _USER_USB_CALLBACK_EVENT_HANDLER
 ---------------------------------------------------------------------------------
 (6) _USBStallHandler                                      1     1      0       0
                                              0 COMMON     1     1      0
 ---------------------------------------------------------------------------------
 (6) _USBIncrement1msInternalTimers                        1     1      0       0
                                              0 COMMON     1     1      0
 ---------------------------------------------------------------------------------
 (6) _USBCtrlEPService                                     3     3      0   20809
                                              0 BANK1      3     3      0
                _USBCtrlTrfInHandler
               _USBCtrlTrfOutHandler
             _USBCtrlTrfSetupHandler
 ---------------------------------------------------------------------------------
 (7) _USBCtrlTrfSetupHandler                               1     1      0   20472
                                             15 BANK0h     1     1      0
                 _USBCheckStdRequest
           _USBCtrlEPServiceComplete
    _USER_USB_CALLBACK_EVENT_HANDLER
 ---------------------------------------------------------------------------------
 (8) _USBCtrlEPServiceComplete                             2     2      0     136
                                              5 COMMON     2     2      0
            _USBCtrlEPAllowDataStage
          _USBCtrlEPAllowStatusStage
 ---------------------------------------------------------------------------------
 (9) _USBCtrlEPAllowDataStage                              2     2      0     136
                                              3 COMMON     2     2      0
                _USBCtrlTrfTxService
 ---------------------------------------------------------------------------------
 (8) _USBCheckStdRequest                                   1     1      0   15626
                                             14 BANK0h     1     1      0
            _USBStdFeatureReqHandler
                _USBStdGetDscHandler
             _USBStdGetStatusHandler
                _USBStdSetCfgHandler
    _USER_USB_CALLBACK_EVENT_HANDLER
 ---------------------------------------------------------------------------------
 (9) _USBStdSetCfgHandler                                  5     5      0    5584
                                              8 BANK0h     5     5      0
    _USER_USB_CALLBACK_EVENT_HANDLER
                             _memset
 ---------------------------------------------------------------------------------
 (10) _memset                                              8     2      6     639
                                              0 COMMON     8     2      6
 ---------------------------------------------------------------------------------
 (9) _USBStdGetStatusHandler                               2     2      0      68
                                              0 COMMON     2     2      0
 ---------------------------------------------------------------------------------
 (9) _USBStdGetDscHandler                                  3     3      0       0
                                              0 COMMON     3     3      0
 ---------------------------------------------------------------------------------
 (9) _USBStdFeatureReqHandler                              6     6      0    5264
                                              8 BANK0h     6     6      0
    _USER_USB_CALLBACK_EVENT_HANDLER
 ---------------------------------------------------------------------------------
 (6) _USER_USB_CALLBACK_EVENT_HANDLER                      6     0      6    4710
                                              2 BANK0h     6     0      6
   _APP_DeviceCDCBasicDemoInitialize
             _APP_LEDUpdateUSBStatus
                 _USBCheckCDCRequest
                i1_SYSTEM_Initialize
 ---------------------------------------------------------------------------------
 (7) i1_SYSTEM_Initialize                                  1     1      0      31
                                              0 COMMON     1     1      0
 ---------------------------------------------------------------------------------
 (7) _USBCheckCDCRequest                                   1     1      0       0
                                              0 COMMON     1     1      0
 ---------------------------------------------------------------------------------
 (7) _APP_LEDUpdateUSBStatus                               0     0      0       0
                            _LED_Off
                             _LED_On
 ---------------------------------------------------------------------------------
 (8) _LED_On                                               1     1      0       0
 ---------------------------------------------------------------------------------
 (8) _LED_Off                                              2     2      0       0
                                              0 COMMON     1     1      0
 ---------------------------------------------------------------------------------
 (7) _APP_DeviceCDCBasicDemoInitialize                     1     1      0    1528
                                             13 COMMON     1     1      0
                          _CDCInitEP
 ---------------------------------------------------------------------------------
 (8) _CDCInitEP                                            2     2      0    1528
                                              0 BANK0h     2     2      0
                  _USBEnableEndpoint
             i1_USBTransferOnePacket
 ---------------------------------------------------------------------------------
 (9) i1_USBTransferOnePacket                               8     4      4     576
                                              0 COMMON     8     4      4
 ---------------------------------------------------------------------------------
 (9) _USBEnableEndpoint                                    6     5      1     952
                                              7 COMMON     6     5      1
               _USBConfigureEndpoint
 ---------------------------------------------------------------------------------
 (10) _USBConfigureEndpoint                                7     6      1     524
                                              0 COMMON     7     6      1
 ---------------------------------------------------------------------------------
 (7) _USBCtrlTrfOutHandler                                 2     2      0     167
                                              6 COMMON     2     2      0
                _USBCtrlTrfRxService
 ---------------------------------------------------------------------------------
 (8) _USBCtrlTrfRxService                                  4     4      0     167
                                              2 COMMON     4     4      0
          _USBCtrlEPAllowStatusStage
 ---------------------------------------------------------------------------------
 (9) _USBCtrlEPAllowStatusStage                            2     2      0       0
                                              0 COMMON     2     2      0
 ---------------------------------------------------------------------------------
 (7) _USBCtrlTrfInHandler                                  3     3      0     170
                                              3 COMMON     3     3      0
                _USBCtrlTrfTxService
 ---------------------------------------------------------------------------------
 (10) _USBCtrlTrfTxService                                 3     3      0     136
                                              0 COMMON     3     3      0
 ---------------------------------------------------------------------------------
 Estimated maximum stack depth 10
 ---------------------------------------------------------------------------------

 Call Graph Graphs:

 _main (ROOT)
   _APP_DeviceCDCBasicDemoTasks
     _CDCTxService
       _USBTransferOnePacket
     _atoi
       ___wmul
       _isdigit
     _getsUSBUSART
       _USBTransferOnePacket
     _putrsUSBUSART
   _SYSTEM_Initialize
   _USBDeviceAttach
   _USBDeviceInit

 _SYS_InterruptHigh (ROOT)
   _USBDeviceTasks
     _USBCtrlEPAllowStatusStage
     _USBCtrlEPService
       _USBCtrlTrfInHandler
         _USBCtrlTrfTxService
       _USBCtrlTrfOutHandler
         _USBCtrlTrfRxService
           _USBCtrlEPAllowStatusStage
       _USBCtrlTrfSetupHandler
         _USBCheckStdRequest
           _USBStdFeatureReqHandler
             _USER_USB_CALLBACK_EVENT_HANDLER
               _APP_DeviceCDCBasicDemoInitialize
                 _CDCInitEP
                   _USBEnableEndpoint
                     _USBConfigureEndpoint
                   i1_USBTransferOnePacket
               _APP_LEDUpdateUSBStatus
                 _LED_Off
                 _LED_On
               _USBCheckCDCRequest
               i1_SYSTEM_Initialize
           _USBStdGetDscHandler
           _USBStdGetStatusHandler
           _USBStdSetCfgHandler
             _USER_USB_CALLBACK_EVENT_HANDLER
               _APP_DeviceCDCBasicDemoInitialize
                 _CDCInitEP
                   _USBEnableEndpoint
                     _USBConfigureEndpoint
                   i1_USBTransferOnePacket
               _APP_LEDUpdateUSBStatus
                 _LED_Off
                 _LED_On
               _USBCheckCDCRequest
               i1_SYSTEM_Initialize
             _memset
           _USER_USB_CALLBACK_EVENT_HANDLER
             _APP_DeviceCDCBasicDemoInitialize
               _CDCInitEP
                 _USBEnableEndpoint
                   _USBConfigureEndpoint
                 i1_USBTransferOnePacket
             _APP_LEDUpdateUSBStatus
               _LED_Off
               _LED_On
             _USBCheckCDCRequest
             i1_SYSTEM_Initialize
         _USBCtrlEPServiceComplete
           _USBCtrlEPAllowDataStage
             _USBCtrlTrfTxService
           _USBCtrlEPAllowStatusStage
         _USER_USB_CALLBACK_EVENT_HANDLER
           _APP_DeviceCDCBasicDemoInitialize
             _CDCInitEP
               _USBEnableEndpoint
                 _USBConfigureEndpoint
               i1_USBTransferOnePacket
           _APP_LEDUpdateUSBStatus
             _LED_Off
             _LED_On
           _USBCheckCDCRequest
           i1_SYSTEM_Initialize
     _USBIncrement1msInternalTimers
     _USBStallHandler
     _USBSuspend
       _USER_USB_CALLBACK_EVENT_HANDLER
         _APP_DeviceCDCBasicDemoInitialize
           _CDCInitEP
             _USBEnableEndpoint
               _USBConfigureEndpoint
             i1_USBTransferOnePacket
         _APP_LEDUpdateUSBStatus
           _LED_Off
           _LED_On
         _USBCheckCDCRequest
         i1_SYSTEM_Initialize
     _USBWakeFromSuspend
       _USER_USB_CALLBACK_EVENT_HANDLER
         _APP_DeviceCDCBasicDemoInitialize
           _CDCInitEP
             _USBEnableEndpoint
               _USBConfigureEndpoint
             i1_USBTransferOnePacket
         _APP_LEDUpdateUSBStatus
           _LED_Off
           _LED_On
         _USBCheckCDCRequest
         i1_SYSTEM_Initialize
     _USER_USB_CALLBACK_EVENT_HANDLER
       _APP_DeviceCDCBasicDemoInitialize
         _CDCInitEP
           _USBEnableEndpoint
             _USBConfigureEndpoint
           i1_USBTransferOnePacket
       _APP_LEDUpdateUSBStatus
         _LED_Off
         _LED_On
       _USBCheckCDCRequest
       i1_SYSTEM_Initialize
     i1_USBDeviceInit

 Address spaces:
Name               Size   Autos  Total    Cost      Usage
BIGRAM             3F0      0       0       0        0.0%
NULL                 0      0       0       0        0.0%
CODE                 0      0       0       0        0.0%
BITCOMMON            E      0       0       1        0.0%
BITSFR0              0      0       0       1        0.0%
SFR0                 0      0       0       1        0.0%
COMMON               E      E       E       2      100.0%
BITSFR1              0      0       0       2        0.0%
SFR1                 0      0       0       2        0.0%
BITSFR2              0      0       0       3        0.0%
SFR2                 0      0       0       3        0.0%
STACK                0      0       0       3        0.0%
BITBANK0h           10      0       0       4        0.0%
BITSFR3              0      0       0       4        0.0%
SFR3                 0      0       0       4        0.0%
BANK0h              10     10      10       5      100.0%
BITSFR4              0      0       0       5        0.0%
SFR4                 0      0       0       5        0.0%
BITBANK1            10      0       0       6        0.0%
BITSFR5              0      0       0       6        0.0%
SFR5                 0      0       0       6        0.0%
BANK1               10      7       D       7       81.2%
BITSFR6              0      0       0       7        0.0%
SFR6                 0      0       0       7        0.0%
BITBANK2            10      0       0       8        0.0%
BITSFR7              0      0       0       8        0.0%
SFR7                 0      0       0       8        0.0%
BANK2               10     10      10       9      100.0%
BITSFR8              0      0       0       9        0.0%
SFR8                 0      0       0       9        0.0%
BITBANK3            50      0       0      10        0.0%
BITSFR9              0      0       0      10        0.0%
SFR9                 0      0       0      10        0.0%
BANK3               50      1      50      11      100.0%
BITSFR10             0      0       0      11        0.0%
SFR10                0      0       0      11        0.0%
BITBANK4            50      0       0      12        0.0%
BITSFR11             0      0       0      12        0.0%
SFR11                0      0       0      12        0.0%
BANK4               50      4      34      13       65.0%
BITSFR12             0      0       0      13        0.0%
SFR12                0      0       0      13        0.0%
BITBANK5            50      0       0      14        0.0%
BITSFR13             0      0       0      14        0.0%
SFR13                0      0       0      14        0.0%
BANK5               50      0      40      15       80.0%
BITSFR14             0      0       0      15        0.0%
SFR14                0      0       0      15        0.0%
BITBANK6            50      0       0      16        0.0%
BITSFR15             0      0       0      16        0.0%
SFR15                0      0       0      16        0.0%
BANK6               50      0      40      17       80.0%
BITSFR16             0      0       0      17        0.0%
SFR16                0      0       0      17        0.0%
BITBANK7            50      0       0      18        0.0%
BITSFR17             0      0       0      18        0.0%
SFR17                0      0       0      18        0.0%
BANK7               50      0       0      19        0.0%
BITSFR18             0      0       0      19        0.0%
SFR18                0      0       0      19        0.0%
BITSFR19             0      0       0      20        0.0%
SFR19                0      0       0      20        0.0%
ABS                  0      0     13F      20        0.0%
BITBANK8            50      0       0      21        0.0%
BITSFR20             0      0       0      21        0.0%
SFR20                0      0       0      21        0.0%
BANK8               50      0       0      22        0.0%
BITSFR21             0      0       0      22        0.0%
SFR21                0      0       0      22        0.0%
BITBANK9            50      0       0      23        0.0%
BITSFR22             0      0       0      23        0.0%
SFR22                0      0       0      23        0.0%
BANK9               50      0       0      24        0.0%
BITSFR23             0      0       0      24        0.0%
SFR23                0      0       0      24        0.0%
BITBANK10           50      0       0      25        0.0%
BITSFR24             0      0       0      25        0.0%
SFR24                0      0       0      25        0.0%
BANK10              50      0       0      26        0.0%
BITSFR25             0      0       0      26        0.0%
SFR25                0      0       0      26        0.0%
BITBANK11           50      0       0      27        0.0%
BITSFR26             0      0       0      27        0.0%
SFR26                0      0       0      27        0.0%
BANK11              50      0       0      28        0.0%
BITSFR27             0      0       0      28        0.0%
SFR27                0      0       0      28        0.0%
BITBANK12           30      0       0      29        0.0%
BITSFR28             0      0       0      29        0.0%
SFR28                0      0       0      29        0.0%
BANK12              30      0       0      30        0.0%
BITSFR29             0      0       0      30        0.0%
SFR29                0      0       0      30        0.0%
BITSFR30             0      0       0      31        0.0%
SFR30                0      0       0      31        0.0%
DATA                 0      0     13F      31        0.0%
BITSFR31             0      0       0      32        0.0%
SFR31                0      0       0      32        0.0%


Microchip Technology PIC Macro Assembler V1.35 build -356382666 
Symbol Table                                                                                   Sun Jan 17 17:20:55 2016

                               _USB_SD_Ptr 054C                                          pc 0002  
                              __CFG_CP$OFF 0000                              _USBDeviceInit 03F0  
                      ___wmul@multiplicand 0162                         __size_of_CDCInitEP 0039  
     USER_USB_CALLBACK_EVENT_HANDLER@event 0062       USER_USB_CALLBACK_EVENT_HANDLER@pdata 0064  
                                      l316 08FC                __end_of_USBStdGetDscHandler 1000  
                                      l256 0437                                        l703 089E  
                                      l718 08D8                                        l657 01C4  
                                      _BDT 0020                                        _PR2 001B  
                                      _UIE 0E92                                        _UIR 0E90  
                   _APP_LEDUpdateUSBStatus 0B9B                                 _USBSuspend 0926  
                     USBStdSetCfgHandler@i 006C                       USBStdSetCfgHandler@p 0069  
              __end_ofi1_SYSTEM_Initialize 0888                               __CFG_BORV$LO 0000  
                                      wreg 0009                             _USBDeviceTasks 0241  
                           _USBDeviceState 01CC                      ??_USBCtrlTrfRxService 0072  
                           ??_getsUSBUSART 0169                   USBEnableEndpoint@options 0077  
                             __CFG_LVP$OFF 0000                            __end_of_LED_Off 0845  
               USBConfigureEndpoint@handle 0076                                       l5110 0336  
                                     l5130 0367                                       l5124 035E  
                                     l5028 08D2                                       l5142 0386  
                                     l5150 03A3                                       l5118 0341  
                                     l5070 0CBC                                       l5062 0C9B  
                                     l5152 03A8                                       l5160 03C5  
                                     l5048 085E                                       l5072 0CCE  
                                     l5170 03DA                                       l5162 03C9  
                                     l5058 0C8C                                       l5082 09E4  
                                     l5172 03ED                                       l5244 0F1A  
                                     l5068 0C9D                                       l5420 0480  
                                     l5262 0F3F                                       l5246 0F12  
                                     l5094 09F9                                       l5086 09EA  
                                     l5414 0460                                       l5168 03D4  
                                     l5272 0F7C                                       l5264 0F43  
                                     l5256 0F37                                       l5248 0F1F  
                                     l5600 01CB                                       l5266 0F6C  
                                     l5602 01DB                                       l5380 041E  
                                     l5372 0411                                       l5364 0400  
                                     l5550 0901                                       l5392 043C  
                                     l5626 023C                                       l5618 0217  
                                     l5554 088B                                       l4932 0C49  
                                     l4924 0C3B                                       l5580 017D  
                                     l5628 023E                                       l4942 0C75  
                                     l5558 0892                                       l5592 01B1  
                                     l5584 0187                                       l5576 016A  
                                     l5690 0AF8                                       _LATA 010C  
                                     u5045 08D9                                       u5055 08DE  
                                     u6015 0228                                       u6025 0236  
                                     i1l46 0DD9                                       u5565 0421  
                    ??_USBCtrlTrfTxService 0070                                       _UCFG 0E91  
                                     _UEP0 0E98                                       _UEP1 0E99  
                                     u5985 0203                                       u5995 0211  
                                     _UEIE 0E97                                       _UEIR 0E93  
                                     _UCON 0E8E                                       _TMR2 001A  
                             __CFG_WRT$OFF 0000                            _CDCDataInHandle 01C5  
   USBStdFeatureReqHandler@current_ep_data 006C                                       _pDst 01DA  
                                     _atoi 0F10                                       _main 0AC1  
                                     fsr0h 0005                                       fsr1h 0007  
                                     fsr0l 0004                                       indf0 0000  
                                     indf1 0001                                _BaudRateGen 01A7  
                                     fsr1l 0006                            _USBDeviceAttach 08EB  
                                     btemp 007E                              __CFG_BOREN$ON 0000  
                                     ltemp 007E                                       start 0012  
                                     ttemp 007E                                       wtemp 007E  
                            __CFG_IESO$OFF 0000                 __end_of_USBCheckStdRequest 0E3C  
                   ??_USBCtrlTrfOutHandler 0076                        USBDeviceInit@i_1187 0163  
                ??_USBStdFeatureReqHandler 0068                     __size_of_putrsUSBUSART 0031  
                 ??_USBStdGetStatusHandler 0070                             ?_USBDeviceInit 0070  
                              _writeBuffer 0320                                      ?_atoi 0166  
                                    ?_main 0070                              __CFG_WDTE$OFF 0000  
        __size_of_USBCtrlEPServiceComplete 0085                     __end_of_USBDeviceTasks 0328  
                                    _T2CON 001C                  ?_USBCtrlEPServiceComplete 0070  
                                    i1l410 0B11                                      i1l411 0B14  
                                    i1l341 0758                                      i1l502 0113  
                                    i1l406 0B08                                      i1l256 04E8  
                                    i1l409 0B42                                      i1l273 02A1  
                                    i1l354 0EBE                                      i1l267 0264  
                                    i1l277 02CC                                      i1l454 07F9  
                                    i1l278 0325                                      i1l703 0887  
                                    i1l279 02D5                                      i1l369 0606  
                                    i1l490 00AB                                      i1l466 0E3B  
                                    i1l468 0DE2                                      i1l477 0E15  
                                    i1l591 0AC0                                      i1l489 00AA  
                                    _UADDR 0E96                                      _TRISA 008C  
                                    _TRISC 008E                                      _USTAT 0E8F  
       __size_of_USBCtrlEPAllowStatusStage 0065                             __CFG_FCMEN$OFF 0000  
          __end_of_USBCtrlEPAllowDataStage 0D25                                      _sd000 05ED  
                                    _sd001 0597                                      _sd002 05BD  
           ?_USBIncrement1msInternalTimers 0070                            __end_of_isdigit 0860  
                                    atoi@a 016B                                      atoi@s 016D  
                                    ltemp0 007E                                      ltemp1 0082  
                                    ltemp2 0086                                      ltemp3 0080  
                        __end_of_CDCInitEP 0A43                                      ttemp0 007E  
                                    ttemp1 0081                                      ttemp2 0084  
                                    ttemp3 0087                                      ttemp4 007F  
                                    status 0003                                      wtemp0 007E  
                                    wtemp1 0080                                      wtemp2 0082  
                                    wtemp3 0084                                      wtemp4 0086  
                                    wtemp5 0088                                      wtemp6 007F  
             __size_of_USBStdSetCfgHandler 008F                             __CFG_MCLRE$OFF 0000  
                          __initialization 0014                               __end_of_atoi 0F81  
                             __end_of_main 0B04                      _control_signal_bitmap 01D7  
                           __CFG_LPBOR$OFF 0000                  __size_of_USBCtrlEPService 0055  
                                   ??_atoi 0168                                     ??_main 01EF  
                          ?_USBDeviceTasks 0070                                ?_USBSuspend 0070  
                                ??_LED_Off 0070                        __CFG_USBLSCLK$48MHz 0000  
                          i1_USBDeviceInit 04A3                               _cdc_mem_type 01D2  
                            _putrsUSBUSART 09D9                    __end_of_USBDeviceAttach 0908  
                         _CDCDataOutHandle 01C6                                     _ACTCON 039B  
                                   i1S5760 0800                                     _APFCON 011D  
                                   _ANSELA 018C                                     _ANSELC 018E  
                          getsUSBUSART@len 0168                     SYSTEM_Initialize@state 0160  
                    __size_of_CDCTxService 00C8                                     i1l5020 07ED  
                                   i1l5004 07B6                                     i1l5006 07BB  
                                   i1l5024 07FE                                     i1l5016 07DE  
                                   i1l4314 0B64                                     i1l4306 0B56  
                                   i1l4410 0BAC                                     i1l4500 0ED6  
                                   i1l4324 0B90                                     i1l4510 0EF3  
                                   i1l4422 0BC5                                     i1l4414 0BB7  
                                   i1l4406 0BA2                                     i1l5302 04CF  
                                   i1l4432 0BDB                                     i1l5216 09A2  
                                   i1l4426 0BD0                                     i1l4418 0BBC  
                                   i1l4434 0BE1                                     i1l4450 0875  
                                   i1l5218 09A4                                     i1l5314 04ED  
                                   i1l4508 0EEF                                     i1l4284 0A6D  
                                   i1l4380 0DA0                                     i1l4460 0A84  
                                   i1l4620 06CF                                     i1l4604 06A5  
                                   i1l5236 0D6B                                     i1l4518 0F0C  
                                   i1l4294 094D                                     i1l4454 087C  
                                   i1l4462 0A8B                                     i1l4470 0A98  
                                   i1l4710 0060                                     i1l4526 08A3  
                                   i1l4614 06BB                                     i1l5238 0D6E  
                                   i1l5342 052B                                     i1l5502 02C4  
                                   i1l4544 0E5F                                     i1l4392 0DBE  
                                   i1l4376 0D99                                     i1l4368 0D8D  
                                   i1l4464 0A92                                     i1l4712 0062  
                                   i1l5184 0979                                     i1l5336 050B  
                                   i1l4298 0954                                     i1l4386 0DB0  
                                   i1l4466 0A95                                     i1l4458 0A81  
                                   i1l5186 0982                                     i1l5530 031C  
                                   i1l5522 02F4                                     i1l4644 0F8C  
                                   i1l4636 0701                                     i1l4900 0E05  
                                   i1l4580 0D0A                                     i1l4812 0766  
                                   i1l4820 076F                                     i1l5452 025E  
                                   i1l5444 0251                                     i1l4398 0DC7  
                                   i1l4750 00DC                                     i1l4734 00B3  
                                   i1l4726 008F                                     i1l4670 0FF3  
                                   i1l4910 0E22                                     i1l5294 04C3  
                                   i1l5286 04B2                                     i1l4488 0EB7  
                                   i1l4760 0102                                     i1l4744 00CC  
                                   i1l4664 0FED                                     i1l4656 0FC9  
                                   i1l4648 0F96                                     i1l4576 0CF7  
                                   i1l5528 030D                                     i1l5472 027D  
                                   _LED_On 083C                                     i1l4850 060E  
                                   i1l4770 0119                                     i1l4762 0107  
                                   i1l4746 00D3                                     i1l4666 0FF0  
                                   i1l4658 0FCC                                     i1l4682 0B1D  
                                   i1l4914 0E30                                     i1l5466 0277  
                                   i1l4852 0627                                     i1l4692 0B36  
                                   i1l4596 0694                                     i1l4862 0652  
                                   i1l4774 0139                                     i1l4790 0728  
                                   i1l5494 02AE                                     i1l5478 0292  
                                   i1l4864 065F                                     i1l4776 0141  
                                   i1l5488 02A7                                     i1l5762 0AA1  
                                   i1l4794 072C                                     i1l5764 0ABB  
                                   i1l4884 0DEB                                     i1l4990 09D6  
                                   i1l4886 0DEE                                     i1l4896 0DFF  
                                   i1l4888 0DF1                                     i1l4978 09B1  
                                   i1l4898 0E02                                     u415_25 0A4B  
                                   u416_25 0A51                                     u417_25 0A59  
                                   u447_25 0D01                                     u535_25 0D34  
                                   _OSCCON 0099                                     u548_25 04D2  
                                   u486_25 0600                              CDCTxService@i 016A  
             i1USBTransferOnePacket@handle 0077                             __CFG_PWRTE$OFF 0000  
                        _shortPacketStatus 01DB                            USBDeviceTasks@i 00E5  
              USBStdFeatureReqHandler@pUEP 006A                   USBTransferOnePacket@data 0161  
               USBCtrlTrfInHandler@lastDTS 0075                            ??_USBDeviceInit 0160  
                                   ___wmul 08CF                             __CFG_STVREN$ON 0000  
                     __end_of_getsUSBUSART 0CD0                          _USBEnableEndpoint 0945  
          __size_of_USBStdGetStatusHandler 004B                                     _memset 089F  
                       ?_USBEnableEndpoint 0077              __size_of_USBTransferOnePacket 004D  
                                ??_isdigit 0160                               _CDCTxService 0328  
                           ?_putrsUSBUSART 0070                        ??_USBEnableEndpoint 0078  
        APP_DeviceCDCBasicDemoTasks@number 0251                                _CtrlTrfData 0058  
             ?_APP_DeviceCDCBasicDemoTasks 0070                       _controlTransferState 01D6  
                        _SYSTEM_Initialize 0888                    __end_of__initialization 0046  
               i1USBTransferOnePacket@data 0071                         ?_SYSTEM_Initialize 0070  
                 __size_of_USBStallHandler 0024                             __pcstackBANK0h 0060  
                      __size_of_USBSuspend 001F                             __pcstackCOMMON 0070  
                __end_of_USBEnableEndpoint 0965                              __end_of_sd000 05F1  
                            __end_of_sd001 05BD                              __end_of_sd002 05DB  
                             __pidataBANK4 0908                        ??_SYSTEM_Initialize 0160  
                                LED_On@led 0070           __size_of_USBCtrlEPAllowDataStage 0055  
            __size_of_USBConfigureEndpoint 003D                    __end_ofi1_USBDeviceInit 054C  
              __end_of_USBCtrlTrfInHandler 0800                    ?_APP_LEDUpdateUSBStatus 0070  
                               _cdc_notice 023E                                 _cdc_rx_len 01D3  
                               _cdc_tx_len 01D5                              _buttonMessage 022B  
                 ??_USBCtrlTrfSetupHandler 006F                    _USBTicksSinceSuspendEnd 01D0  
                         ?_USBDeviceAttach 0070                  __end_of_SYSTEM_Initialize 089F  
                   _USBStdGetStatusHandler 0B04                              _buttonPressed 01D1  
                               __pbssBANK1 00E7                                 __pbssBANK3 01A0  
                               __pbssBANK4 023E                                 __pbssBANK5 02A0  
                               __pbssBANK6 0320                                    ?_LED_On 0070  
            ??_APP_DeviceCDCBasicDemoTasks 016E   __end_of_APP_DeviceCDCBasicDemoInitialize 0873  
__size_of_APP_DeviceCDCBasicDemoInitialize 0013         ??_APP_DeviceCDCBasicDemoInitialize 007D  
        ?_APP_DeviceCDCBasicDemoInitialize 0070           _APP_DeviceCDCBasicDemoInitialize 0860  
              __size_of_USBWakeFromSuspend 0020                                _pBDTEntryIn 01B5  
         __end_of_USBCtrlEPServiceComplete 079C                __size_of_USBCheckCDCRequest 0060  
                               __pmaintext 0AC1                       USBCtrlTrfRxService@i 0074  
                          __CFG_PLLMULT$3x 0000                                    ?___wmul 0160  
           __end_of_APP_LEDUpdateUSBStatus 0BE7                                 __pintentry 0004  
             APP_DeviceCDCBasicDemoTasks@i 0253                                    ?_memset 0070  
                               _device_dsc 05DB                           _USBCtrlEPService 0D25  
                               _ep_data_in 01AF                __end_of_USBCtrlTrfRxService 0688  
                       _USBCheckStdRequest 0DDA                          _configDescriptor1 0554  
                          ??_putrsUSBUSART 0160                                    _LED_Off 083F  
              __end_of_USBCtrlTrfTxService 0F10                        _USBStdSetCfgHandler 0688  
                                  u537_2m0 0D64                                    _PWM1DCH 0612  
                                  _PWM1DCL 0611                                    _PWM2DCH 0615  
                                  _PWM2DCL 0614                                    _PWM1CON 0613  
                                  _PWM2CON 0616                        ?_USBCheckStdRequest 0070  
             __size_of_USBStdGetDscHandler 007F                                    _UIEbits 0E92  
                                  _UIRbits 0E90               __size_ofi1_SYSTEM_Initialize 0015  
                          __size_of_LED_On 0003                              _cdc_trf_state 01D4  
                 ??i1_USBTransferOnePacket 0074             APP_LEDUpdateUSBStatus@ledCount 01BB  
                                  _pCDCDst 01BD                                    _pCDCSrc 01BF  
                    __size_of_getsUSBUSART 0050            ??_USBIncrement1msInternalTimers 0070  
                     ?_USBStdSetCfgHandler 0070                                  _CDCInitEP 0A0A  
               __size_of_USBEnableEndpoint 0020                                 _readBuffer 02A0  
                     ??_USBCheckStdRequest 006E              __size_of_USBCtrlTrfOutHandler 0030  
                         ??_USBDeviceTasks 00E3                            __size_of___wmul 001C  
                        ??_USBStallHandler 0070       __size_of_APP_DeviceCDCBasicDemoTasks 00EB  
                         ?i1_USBDeviceInit 0070                         getsUSBUSART@buffer 016B  
                          __size_of_memset 0018                  __end_of_configDescriptor1 0597  
                                  __ptext1 03F0                                    __ptext2 08EB  
                                  __ptext3 0888                                    __ptext4 0156  
                                  __ptext5 09D9                                    __ptext6 0C80  
                                  __ptext7 0F10                                    __ptext8 0851  
                                  __ptext9 08CF                                    _inPipes 00E7  
              _USBDeferOUTDataStagePackets 01CA                               ??_USBSuspend 0068  
                                _T2CONbits 001C                                    _isdigit 0851  
   APP_DeviceCDCBasicDemoTasks@msg_buf_idx 01C1                         __end_of_USB_CD_Ptr 0554  
               __size_of_SYSTEM_Initialize 0017            __size_of_USBCtrlTrfSetupHandler 004C  
                                  clrloop0 084C                       end_of_initialization 0046  
                             _getsUSBUSART 0C80                                 _msg_buffer 01DC  
                       __end_of_USB_SD_Ptr 0552                        _pBDTEntryEP0OutNext 00EC  
                                  init_ram 0845                                    memset@c 0072  
                                  memset@n 0074                                    memset@p 0076  
                                  initloop 0846                            _USB1msTickCount 01AB  
          _dummy_encapsulated_cmd_response 0248                   ?_USBStdFeatureReqHandler 0070  
                    ??_USBStdSetCfgHandler 0068                                 ?_CDCInitEP 0070  
                       __end_of_USBSuspend 0945                    _USBCtrlEPAllowDataStage 0CD0  
                             __pstringtext 054C                   _USBCtrlEPServiceComplete 0717  
               _USBStatusStageEnabledFlag1 01CD                 _USBStatusStageEnabledFlag2 01CE  
                       USBEnableEndpoint@p 007A                           __CFG_FOSC$INTOSC 0000  
                       _BothEP0OutUOWNsSet 01C4                  USBStdSetCfgHandler@i_1478 006B  
                USBConfigureEndpoint@EPNum 0075                 ?_USBCtrlEPAllowStatusStage 0070  
      USER_USB_CALLBACK_EVENT_HANDLER@size 0066    APP_DeviceCDCBasicDemoTasks@numBytesRead 0250  
                                _USTATcopy 01EE                   i1USBTransferOnePacket@ep 0076  
             __end_of_USBTransferOnePacket 0C80                             __end_of_LED_On 083F  
          __size_ofi1_USBTransferOnePacket 004C        APP_DeviceCDCBasicDemoTasks@msg_done 01C2  
                       __CFG_PLLEN$ENABLED 0000                      i1USBDeviceInit@i_1187 0073  
      APP_DeviceCDCBasicDemoTasks@msg_type 01C3                     _USBCtrlTrfSetupHandler 0BE7  
                    __end_of_USBDeviceInit 04A3      __end_of_USBIncrement1msInternalTimers 08CF  
   __size_of_USBIncrement1msInternalTimers 0018              _USBIncrement1msInternalTimers 08B7  
                               LED_Off@led 0070                             __end_of___wmul 08EB  
                       putrsUSBUSART@pData 0161                             __end_of_memset 08B7  
                        _USBBusIsSuspended 01C8                        start_initialization 0014  
                  ?_USBStdGetStatusHandler 0070              USBCtrlTrfRxService@byteToRead 0075  
                              _cdc_data_rx 0120                                _cdc_data_tx 00A0  
             __end_of_USBConfigureEndpoint 0A80            __end_of_USBStdFeatureReqHandler 0156  
                                 ??_LED_On 0070          __end_of_USBCtrlEPAllowStatusStage 0EA1  
                 __end_of_USBCtrlEPService 0D7A                  ??_USBCtrlEPAllowDataStage 0073  
                              ??_CDCInitEP 0060                             USBDeviceInit@i 0164  
                           USBDeviceInit@p 0161                     _pBDTEntryEP0OutCurrent 01D9  
                  USBTransferOnePacket@dir 0160                    USBTransferOnePacket@len 0163  
                                 ??___wmul 0164                        _USBStdGetDscHandler 0F81  
                              __pdataBANK4 0220                                   ??_memset 0076  
                      i1_SYSTEM_Initialize 0873                     i1_USBTransferOnePacket 0B4F  
                   _USBActiveConfiguration 01ED             __end_of_USBStdGetStatusHandler 0B4F  
                i1USBTransferOnePacket@dir 0070                  i1USBTransferOnePacket@len 0073  
                                 ?_LED_Off 0070                                  ___latbits 0002  
                            __pcstackBANK1 00E0                              __pcstackBANK2 0160  
                            __pcstackBANK3 01EF               __size_of_USBCtrlTrfInHandler 0064  
                            __pcstackBANK4 0250                                _echoMessage 0220  
                             _isdigit$2126 0160                       ?_USBStdGetDscHandler 0070  
                     ?i1_SYSTEM_Initialize 0070                 __end_of_USBWakeFromSuspend 0985  
                          _USBStallHandler 0985                               _pBDTEntryOut 01B8  
               __end_of_USBCheckCDCRequest 0DDA                   __size_of_USBDeviceAttach 001D  
                                __pswtext1 0800                       _USBTransferOnePacket 0C33  
                                 ?_isdigit 0070                      __end_of_putrsUSBUSART 0A0A  
             __end_of_USBCtrlTrfOutHandler 09D9                      ??_USBStdGetDscHandler 0070  
                              _ep_data_out 01B2        __end_of_APP_DeviceCDCBasicDemoTasks 0241  
              _APP_DeviceCDCBasicDemoTasks 0156               __size_of_USBCtrlTrfRxService 0097  
            USBConfigureEndpoint@direction 0070                      ??i1_SYSTEM_Initialize 0070  
             __size_of_USBCtrlTrfTxService 006F                             ___wmul@product 0164  
               ??_USBCtrlEPServiceComplete 0075                                  clear_ram0 084B  
                                 _PIE2bits 0092                                   _PIR1bits 0011  
                                 _PIR2bits 0012                                   _UEP0bits 0E98  
               _USBDeferINDataStagePackets 01C9                __size_of_USBCheckStdRequest 0062  
                                 _UCONbits 0E8E                       _USBConfigureEndpoint 0A43  
         __size_of_USBStdFeatureReqHandler 010C                          ___wmul@multiplier 0160  
                    ?_USBTransferOnePacket 0160                          _SYS_InterruptHigh 0004  
                            ?_CDCTxService 0070                               _RemoteWakeup 01C7  
                         __size_of_LED_Off 0006                         ?_SYS_InterruptHigh 0070  
                 __size_ofi1_USBDeviceInit 00A9                    __end_of_USBStallHandler 09A9  
                        putrsUSBUSART@data 0162                ??_USBCtrlEPAllowStatusStage 0070  
              __end_of_USBStdSetCfgHandler 0717                        ??_SYS_InterruptHigh 00E6  
                       __end_of_device_dsc 05ED                   ??_APP_LEDUpdateUSBStatus 0071  
                  ?_USBCtrlTrfSetupHandler 0070                    USBStdGetStatusHandler@p 0071  
                   USBTransferOnePacket@ep 0166                                   _SetupPkt 0050  
                    ?_USBConfigureEndpoint 0070                          ??_USBDeviceAttach 0160  
                __end_of_SYS_InterruptHigh 0012                                _line_coding 01E4  
                           ??_CDCTxService 0168                           __size_of_isdigit 000F  
                  __size_of_USBDeviceTasks 00E7                                   __ptext10 0328  
                                 __ptext11 0C33                                   __ptext20 0BE7  
                                 __ptext21 0717                                   __ptext13 0241  
                                 __ptext30 0873                                   __ptext22 0CD0  
                                 __ptext14 04A3                                   __ptext31 0D7A  
                                 __ptext23 0DDA                                   __ptext15 0965  
                                 __ptext40 09A9                                   __ptext32 0B9B  
                                 __ptext24 0688                                   __ptext16 0926  
                                 __ptext41 05F1                                   __ptext33 083C  
                                 __ptext25 089F                                   __ptext17 0985  
                                 __ptext42 0E3C                                   __ptext34 083F  
                                 __ptext26 0B04                                   __ptext18 08B7  
                                 __ptext43 079C                                   __ptext35 0860  
                                 __ptext27 0F81                                   __ptext19 0D25  
                                 __ptext44 0EA1                                   __ptext36 0A0A  
                                 __ptext28 004A                                   __ptext37 0B4F  
                                 __ptext29 0A80                                   __ptext38 0945  
                                 __ptext39 0A43                              __size_of_atoi 0071  
           __end_of_USBCtrlTrfSetupHandler 0C33                              __size_of_main 0043  
                        ?_USBCtrlEPService 0070                         ??_USBCtrlEPService 00E0  
                      _USBCtrlTrfInHandler 079C                                   _outPipes 01A0  
                     _USBCtrlTrfOutHandler 09A9                                   int$flags 007E  
                                 atoi@sign 016A                    ?i1_USBTransferOnePacket 0070  
                _USBCtrlEPAllowStatusStage 0E3C                     ??_USBTransferOnePacket 0164  
                         putrsUSBUSART@len 0163                  _USBDeferStatusStagePacket 01CB  
                 CDCTxService@byte_to_send 016B                           i1USBDeviceInit@i 0074  
                         i1USBDeviceInit@p 0071                                 _INTCONbits 000B  
                 i1SYSTEM_Initialize@state 0070                       ?_USBCtrlTrfInHandler 0070  
            USBCtrlTrfTxService@byteToSend 0072                                   isdigit@c 0161  
                                 memset@p1 0070                           ?_USBStallHandler 0070  
                 USBStdFeatureReqHandler@p 006D                                   intlevel1 0000  
                   __size_of_USBDeviceInit 00B3    __end_of_USER_USB_CALLBACK_EVENT_HANDLER 0AC1  
 __size_of_USER_USB_CALLBACK_EVENT_HANDLER 0041           ?_USER_USB_CALLBACK_EVENT_HANDLER 0062  
        ??_USER_USB_CALLBACK_EVENT_HANDLER 007E            _USER_USB_CALLBACK_EVENT_HANDLER 0A80  
                        ??i1_USBDeviceInit 0070                          __CFG_CLKOUTEN$OFF 0000  
          __size_of_APP_LEDUpdateUSBStatus 004C             __end_ofi1_USBTransferOnePacket 0B9B  
                   ??_USBConfigureEndpoint 0071                      ?_USBCtrlTrfOutHandler 0070  
                     __CFG_CPUDIV$NOCLKDIV 0000                        _USBCtrlTrfRxService 05F1  
                       _USBWakeFromSuspend 0965                    _USBStdFeatureReqHandler 004A  
                       _USBCheckCDCRequest 0D7A                        _USBCtrlTrfTxService 0EA1  
               __size_of_SYS_InterruptHigh 000E                        ?_USBWakeFromSuspend 0070  
                    ??_USBCtrlTrfInHandler 0073                      _USBAlternateInterface 01EB  
                      ?_USBCheckCDCRequest 0070                        USBEnableEndpoint@ep 007C  
                          _endpoint_number 01D8                       ?_USBCtrlTrfRxService 0070  
                            ?_getsUSBUSART 0168                   ?_USBCtrlEPAllowDataStage 0070  
                     ?_USBCtrlTrfTxService 0070               _USBStatusStageTimeoutCounter 01CF  
                     ??_USBWakeFromSuspend 0068                 USBTransferOnePacket@handle 0167  
                     __end_of_CDCTxService 03F0                       ??_USBCheckCDCRequest 0070  
                               _USB_CD_Ptr 0552  
